
ctarget:     file format elf64-x86-64


Disassembly of section .init:

0000000000400c60 <_init>:
  400c60:	48 83 ec 08          	sub    $0x8,%rsp
  400c64:	48 8b 05 8d 33 20 00 	mov    0x20338d(%rip),%rax        # 603ff8 <__gmon_start__>
  400c6b:	48 85 c0             	test   %rax,%rax
  400c6e:	74 05                	je     400c75 <_init+0x15>
  400c70:	e8 2b 01 00 00       	callq  400da0 <__gmon_start__@plt>
  400c75:	48 83 c4 08          	add    $0x8,%rsp
  400c79:	c3                   	retq   

Disassembly of section .plt:

0000000000400c80 <.plt>:
  400c80:	ff 35 82 33 20 00    	pushq  0x203382(%rip)        # 604008 <_GLOBAL_OFFSET_TABLE_+0x8>
  400c86:	ff 25 84 33 20 00    	jmpq   *0x203384(%rip)        # 604010 <_GLOBAL_OFFSET_TABLE_+0x10>
  400c8c:	0f 1f 40 00          	nopl   0x0(%rax)

0000000000400c90 <strcasecmp@plt>:
  400c90:	ff 25 82 33 20 00    	jmpq   *0x203382(%rip)        # 604018 <strcasecmp@GLIBC_2.2.5>
  400c96:	68 00 00 00 00       	pushq  $0x0
  400c9b:	e9 e0 ff ff ff       	jmpq   400c80 <.plt>

0000000000400ca0 <__errno_location@plt>:
  400ca0:	ff 25 7a 33 20 00    	jmpq   *0x20337a(%rip)        # 604020 <__errno_location@GLIBC_2.2.5>
  400ca6:	68 01 00 00 00       	pushq  $0x1
  400cab:	e9 d0 ff ff ff       	jmpq   400c80 <.plt>

0000000000400cb0 <srandom@plt>:
  400cb0:	ff 25 72 33 20 00    	jmpq   *0x203372(%rip)        # 604028 <srandom@GLIBC_2.2.5>
  400cb6:	68 02 00 00 00       	pushq  $0x2
  400cbb:	e9 c0 ff ff ff       	jmpq   400c80 <.plt>

0000000000400cc0 <strncmp@plt>:
  400cc0:	ff 25 6a 33 20 00    	jmpq   *0x20336a(%rip)        # 604030 <strncmp@GLIBC_2.2.5>
  400cc6:	68 03 00 00 00       	pushq  $0x3
  400ccb:	e9 b0 ff ff ff       	jmpq   400c80 <.plt>

0000000000400cd0 <strcpy@plt>:
  400cd0:	ff 25 62 33 20 00    	jmpq   *0x203362(%rip)        # 604038 <strcpy@GLIBC_2.2.5>
  400cd6:	68 04 00 00 00       	pushq  $0x4
  400cdb:	e9 a0 ff ff ff       	jmpq   400c80 <.plt>

0000000000400ce0 <puts@plt>:
  400ce0:	ff 25 5a 33 20 00    	jmpq   *0x20335a(%rip)        # 604040 <puts@GLIBC_2.2.5>
  400ce6:	68 05 00 00 00       	pushq  $0x5
  400ceb:	e9 90 ff ff ff       	jmpq   400c80 <.plt>

0000000000400cf0 <write@plt>:
  400cf0:	ff 25 52 33 20 00    	jmpq   *0x203352(%rip)        # 604048 <write@GLIBC_2.2.5>
  400cf6:	68 06 00 00 00       	pushq  $0x6
  400cfb:	e9 80 ff ff ff       	jmpq   400c80 <.plt>

0000000000400d00 <__stack_chk_fail@plt>:
  400d00:	ff 25 4a 33 20 00    	jmpq   *0x20334a(%rip)        # 604050 <__stack_chk_fail@GLIBC_2.4>
  400d06:	68 07 00 00 00       	pushq  $0x7
  400d0b:	e9 70 ff ff ff       	jmpq   400c80 <.plt>

0000000000400d10 <mmap@plt>:
  400d10:	ff 25 42 33 20 00    	jmpq   *0x203342(%rip)        # 604058 <mmap@GLIBC_2.2.5>
  400d16:	68 08 00 00 00       	pushq  $0x8
  400d1b:	e9 60 ff ff ff       	jmpq   400c80 <.plt>

0000000000400d20 <memset@plt>:
  400d20:	ff 25 3a 33 20 00    	jmpq   *0x20333a(%rip)        # 604060 <memset@GLIBC_2.2.5>
  400d26:	68 09 00 00 00       	pushq  $0x9
  400d2b:	e9 50 ff ff ff       	jmpq   400c80 <.plt>

0000000000400d30 <alarm@plt>:
  400d30:	ff 25 32 33 20 00    	jmpq   *0x203332(%rip)        # 604068 <alarm@GLIBC_2.2.5>
  400d36:	68 0a 00 00 00       	pushq  $0xa
  400d3b:	e9 40 ff ff ff       	jmpq   400c80 <.plt>

0000000000400d40 <close@plt>:
  400d40:	ff 25 2a 33 20 00    	jmpq   *0x20332a(%rip)        # 604070 <close@GLIBC_2.2.5>
  400d46:	68 0b 00 00 00       	pushq  $0xb
  400d4b:	e9 30 ff ff ff       	jmpq   400c80 <.plt>

0000000000400d50 <read@plt>:
  400d50:	ff 25 22 33 20 00    	jmpq   *0x203322(%rip)        # 604078 <read@GLIBC_2.2.5>
  400d56:	68 0c 00 00 00       	pushq  $0xc
  400d5b:	e9 20 ff ff ff       	jmpq   400c80 <.plt>

0000000000400d60 <__libc_start_main@plt>:
  400d60:	ff 25 1a 33 20 00    	jmpq   *0x20331a(%rip)        # 604080 <__libc_start_main@GLIBC_2.2.5>
  400d66:	68 0d 00 00 00       	pushq  $0xd
  400d6b:	e9 10 ff ff ff       	jmpq   400c80 <.plt>

0000000000400d70 <signal@plt>:
  400d70:	ff 25 12 33 20 00    	jmpq   *0x203312(%rip)        # 604088 <signal@GLIBC_2.2.5>
  400d76:	68 0e 00 00 00       	pushq  $0xe
  400d7b:	e9 00 ff ff ff       	jmpq   400c80 <.plt>

0000000000400d80 <gethostbyname@plt>:
  400d80:	ff 25 0a 33 20 00    	jmpq   *0x20330a(%rip)        # 604090 <gethostbyname@GLIBC_2.2.5>
  400d86:	68 0f 00 00 00       	pushq  $0xf
  400d8b:	e9 f0 fe ff ff       	jmpq   400c80 <.plt>

0000000000400d90 <__memmove_chk@plt>:
  400d90:	ff 25 02 33 20 00    	jmpq   *0x203302(%rip)        # 604098 <__memmove_chk@GLIBC_2.3.4>
  400d96:	68 10 00 00 00       	pushq  $0x10
  400d9b:	e9 e0 fe ff ff       	jmpq   400c80 <.plt>

0000000000400da0 <__gmon_start__@plt>:
  400da0:	ff 25 fa 32 20 00    	jmpq   *0x2032fa(%rip)        # 6040a0 <__gmon_start__>
  400da6:	68 11 00 00 00       	pushq  $0x11
  400dab:	e9 d0 fe ff ff       	jmpq   400c80 <.plt>

0000000000400db0 <strtol@plt>:
  400db0:	ff 25 f2 32 20 00    	jmpq   *0x2032f2(%rip)        # 6040a8 <strtol@GLIBC_2.2.5>
  400db6:	68 12 00 00 00       	pushq  $0x12
  400dbb:	e9 c0 fe ff ff       	jmpq   400c80 <.plt>

0000000000400dc0 <memcpy@plt>:
  400dc0:	ff 25 ea 32 20 00    	jmpq   *0x2032ea(%rip)        # 6040b0 <memcpy@GLIBC_2.14>
  400dc6:	68 13 00 00 00       	pushq  $0x13
  400dcb:	e9 b0 fe ff ff       	jmpq   400c80 <.plt>

0000000000400dd0 <time@plt>:
  400dd0:	ff 25 e2 32 20 00    	jmpq   *0x2032e2(%rip)        # 6040b8 <time@GLIBC_2.2.5>
  400dd6:	68 14 00 00 00       	pushq  $0x14
  400ddb:	e9 a0 fe ff ff       	jmpq   400c80 <.plt>

0000000000400de0 <random@plt>:
  400de0:	ff 25 da 32 20 00    	jmpq   *0x2032da(%rip)        # 6040c0 <random@GLIBC_2.2.5>
  400de6:	68 15 00 00 00       	pushq  $0x15
  400deb:	e9 90 fe ff ff       	jmpq   400c80 <.plt>

0000000000400df0 <_IO_getc@plt>:
  400df0:	ff 25 d2 32 20 00    	jmpq   *0x2032d2(%rip)        # 6040c8 <_IO_getc@GLIBC_2.2.5>
  400df6:	68 16 00 00 00       	pushq  $0x16
  400dfb:	e9 80 fe ff ff       	jmpq   400c80 <.plt>

0000000000400e00 <__isoc99_sscanf@plt>:
  400e00:	ff 25 ca 32 20 00    	jmpq   *0x2032ca(%rip)        # 6040d0 <__isoc99_sscanf@GLIBC_2.7>
  400e06:	68 17 00 00 00       	pushq  $0x17
  400e0b:	e9 70 fe ff ff       	jmpq   400c80 <.plt>

0000000000400e10 <munmap@plt>:
  400e10:	ff 25 c2 32 20 00    	jmpq   *0x2032c2(%rip)        # 6040d8 <munmap@GLIBC_2.2.5>
  400e16:	68 18 00 00 00       	pushq  $0x18
  400e1b:	e9 60 fe ff ff       	jmpq   400c80 <.plt>

0000000000400e20 <__printf_chk@plt>:
  400e20:	ff 25 ba 32 20 00    	jmpq   *0x2032ba(%rip)        # 6040e0 <__printf_chk@GLIBC_2.3.4>
  400e26:	68 19 00 00 00       	pushq  $0x19
  400e2b:	e9 50 fe ff ff       	jmpq   400c80 <.plt>

0000000000400e30 <fopen@plt>:
  400e30:	ff 25 b2 32 20 00    	jmpq   *0x2032b2(%rip)        # 6040e8 <fopen@GLIBC_2.2.5>
  400e36:	68 1a 00 00 00       	pushq  $0x1a
  400e3b:	e9 40 fe ff ff       	jmpq   400c80 <.plt>

0000000000400e40 <getopt@plt>:
  400e40:	ff 25 aa 32 20 00    	jmpq   *0x2032aa(%rip)        # 6040f0 <getopt@GLIBC_2.2.5>
  400e46:	68 1b 00 00 00       	pushq  $0x1b
  400e4b:	e9 30 fe ff ff       	jmpq   400c80 <.plt>

0000000000400e50 <strtoul@plt>:
  400e50:	ff 25 a2 32 20 00    	jmpq   *0x2032a2(%rip)        # 6040f8 <strtoul@GLIBC_2.2.5>
  400e56:	68 1c 00 00 00       	pushq  $0x1c
  400e5b:	e9 20 fe ff ff       	jmpq   400c80 <.plt>

0000000000400e60 <gethostname@plt>:
  400e60:	ff 25 9a 32 20 00    	jmpq   *0x20329a(%rip)        # 604100 <gethostname@GLIBC_2.2.5>
  400e66:	68 1d 00 00 00       	pushq  $0x1d
  400e6b:	e9 10 fe ff ff       	jmpq   400c80 <.plt>

0000000000400e70 <exit@plt>:
  400e70:	ff 25 92 32 20 00    	jmpq   *0x203292(%rip)        # 604108 <exit@GLIBC_2.2.5>
  400e76:	68 1e 00 00 00       	pushq  $0x1e
  400e7b:	e9 00 fe ff ff       	jmpq   400c80 <.plt>

0000000000400e80 <connect@plt>:
  400e80:	ff 25 8a 32 20 00    	jmpq   *0x20328a(%rip)        # 604110 <connect@GLIBC_2.2.5>
  400e86:	68 1f 00 00 00       	pushq  $0x1f
  400e8b:	e9 f0 fd ff ff       	jmpq   400c80 <.plt>

0000000000400e90 <__fprintf_chk@plt>:
  400e90:	ff 25 82 32 20 00    	jmpq   *0x203282(%rip)        # 604118 <__fprintf_chk@GLIBC_2.3.4>
  400e96:	68 20 00 00 00       	pushq  $0x20
  400e9b:	e9 e0 fd ff ff       	jmpq   400c80 <.plt>

0000000000400ea0 <__sprintf_chk@plt>:
  400ea0:	ff 25 7a 32 20 00    	jmpq   *0x20327a(%rip)        # 604120 <__sprintf_chk@GLIBC_2.3.4>
  400ea6:	68 21 00 00 00       	pushq  $0x21
  400eab:	e9 d0 fd ff ff       	jmpq   400c80 <.plt>

0000000000400eb0 <socket@plt>:
  400eb0:	ff 25 72 32 20 00    	jmpq   *0x203272(%rip)        # 604128 <socket@GLIBC_2.2.5>
  400eb6:	68 22 00 00 00       	pushq  $0x22
  400ebb:	e9 c0 fd ff ff       	jmpq   400c80 <.plt>

Disassembly of section .text:

0000000000400ec0 <_start>:
  400ec0:	31 ed                	xor    %ebp,%ebp
  400ec2:	49 89 d1             	mov    %rdx,%r9
  400ec5:	5e                   	pop    %rsi
  400ec6:	48 89 e2             	mov    %rsp,%rdx
  400ec9:	48 83 e4 f0          	and    $0xfffffffffffffff0,%rsp
  400ecd:	50                   	push   %rax
  400ece:	54                   	push   %rsp
  400ecf:	49 c7 c0 80 2e 40 00 	mov    $0x402e80,%r8
  400ed6:	48 c7 c1 10 2e 40 00 	mov    $0x402e10,%rcx
  400edd:	48 c7 c7 93 11 40 00 	mov    $0x401193,%rdi
  400ee4:	e8 77 fe ff ff       	callq  400d60 <__libc_start_main@plt>
  400ee9:	f4                   	hlt    
  400eea:	66 0f 1f 44 00 00    	nopw   0x0(%rax,%rax,1)

0000000000400ef0 <deregister_tm_clones>:
  400ef0:	b8 b7 44 60 00       	mov    $0x6044b7,%eax
  400ef5:	55                   	push   %rbp
  400ef6:	48 2d b0 44 60 00    	sub    $0x6044b0,%rax
  400efc:	48 83 f8 0e          	cmp    $0xe,%rax
  400f00:	48 89 e5             	mov    %rsp,%rbp
  400f03:	77 02                	ja     400f07 <deregister_tm_clones+0x17>
  400f05:	5d                   	pop    %rbp
  400f06:	c3                   	retq   
  400f07:	b8 00 00 00 00       	mov    $0x0,%eax
  400f0c:	48 85 c0             	test   %rax,%rax
  400f0f:	74 f4                	je     400f05 <deregister_tm_clones+0x15>
  400f11:	5d                   	pop    %rbp
  400f12:	bf b0 44 60 00       	mov    $0x6044b0,%edi
  400f17:	ff e0                	jmpq   *%rax
  400f19:	0f 1f 80 00 00 00 00 	nopl   0x0(%rax)

0000000000400f20 <register_tm_clones>:
  400f20:	b8 b0 44 60 00       	mov    $0x6044b0,%eax
  400f25:	55                   	push   %rbp
  400f26:	48 2d b0 44 60 00    	sub    $0x6044b0,%rax
  400f2c:	48 c1 f8 03          	sar    $0x3,%rax
  400f30:	48 89 e5             	mov    %rsp,%rbp
  400f33:	48 89 c2             	mov    %rax,%rdx
  400f36:	48 c1 ea 3f          	shr    $0x3f,%rdx
  400f3a:	48 01 d0             	add    %rdx,%rax
  400f3d:	48 d1 f8             	sar    %rax
  400f40:	75 02                	jne    400f44 <register_tm_clones+0x24>
  400f42:	5d                   	pop    %rbp
  400f43:	c3                   	retq   
  400f44:	ba 00 00 00 00       	mov    $0x0,%edx
  400f49:	48 85 d2             	test   %rdx,%rdx
  400f4c:	74 f4                	je     400f42 <register_tm_clones+0x22>
  400f4e:	5d                   	pop    %rbp
  400f4f:	48 89 c6             	mov    %rax,%rsi
  400f52:	bf b0 44 60 00       	mov    $0x6044b0,%edi
  400f57:	ff e2                	jmpq   *%rdx
  400f59:	0f 1f 80 00 00 00 00 	nopl   0x0(%rax)

0000000000400f60 <__do_global_dtors_aux>:
  400f60:	80 3d 89 35 20 00 00 	cmpb   $0x0,0x203589(%rip)        # 6044f0 <completed.6982>
  400f67:	75 11                	jne    400f7a <__do_global_dtors_aux+0x1a>
  400f69:	55                   	push   %rbp
  400f6a:	48 89 e5             	mov    %rsp,%rbp
  400f6d:	e8 7e ff ff ff       	callq  400ef0 <deregister_tm_clones>
  400f72:	5d                   	pop    %rbp
  400f73:	c6 05 76 35 20 00 01 	movb   $0x1,0x203576(%rip)        # 6044f0 <completed.6982>
  400f7a:	f3 c3                	repz retq 
  400f7c:	0f 1f 40 00          	nopl   0x0(%rax)

0000000000400f80 <frame_dummy>:
  400f80:	48 83 3d 98 2e 20 00 	cmpq   $0x0,0x202e98(%rip)        # 603e20 <__JCR_END__>
  400f87:	00 
  400f88:	74 1e                	je     400fa8 <frame_dummy+0x28>
  400f8a:	b8 00 00 00 00       	mov    $0x0,%eax
  400f8f:	48 85 c0             	test   %rax,%rax
  400f92:	74 14                	je     400fa8 <frame_dummy+0x28>
  400f94:	55                   	push   %rbp
  400f95:	bf 20 3e 60 00       	mov    $0x603e20,%edi
  400f9a:	48 89 e5             	mov    %rsp,%rbp
  400f9d:	ff d0                	callq  *%rax
  400f9f:	5d                   	pop    %rbp
  400fa0:	e9 7b ff ff ff       	jmpq   400f20 <register_tm_clones>
  400fa5:	0f 1f 00             	nopl   (%rax)
  400fa8:	e9 73 ff ff ff       	jmpq   400f20 <register_tm_clones>
  400fad:	0f 1f 00             	nopl   (%rax)

0000000000400fb0 <usage>:
  400fb0:	48 83 ec 08          	sub    $0x8,%rsp
  400fb4:	48 89 fa             	mov    %rdi,%rdx
  400fb7:	83 3d 6a 35 20 00 00 	cmpl   $0x0,0x20356a(%rip)        # 604528 <is_checker>
  400fbe:	74 3e                	je     400ffe <usage+0x4e>
  400fc0:	be 98 2e 40 00       	mov    $0x402e98,%esi
  400fc5:	bf 01 00 00 00       	mov    $0x1,%edi
  400fca:	b8 00 00 00 00       	mov    $0x0,%eax
  400fcf:	e8 4c fe ff ff       	callq  400e20 <__printf_chk@plt>
  400fd4:	bf d0 2e 40 00       	mov    $0x402ed0,%edi
  400fd9:	e8 02 fd ff ff       	callq  400ce0 <puts@plt>
  400fde:	bf 08 30 40 00       	mov    $0x403008,%edi
  400fe3:	e8 f8 fc ff ff       	callq  400ce0 <puts@plt>
  400fe8:	bf f8 2e 40 00       	mov    $0x402ef8,%edi
  400fed:	e8 ee fc ff ff       	callq  400ce0 <puts@plt>
  400ff2:	bf 22 30 40 00       	mov    $0x403022,%edi
  400ff7:	e8 e4 fc ff ff       	callq  400ce0 <puts@plt>
  400ffc:	eb 32                	jmp    401030 <usage+0x80>
  400ffe:	be 3e 30 40 00       	mov    $0x40303e,%esi
  401003:	bf 01 00 00 00       	mov    $0x1,%edi
  401008:	b8 00 00 00 00       	mov    $0x0,%eax
  40100d:	e8 0e fe ff ff       	callq  400e20 <__printf_chk@plt>
  401012:	bf 20 2f 40 00       	mov    $0x402f20,%edi
  401017:	e8 c4 fc ff ff       	callq  400ce0 <puts@plt>
  40101c:	bf 48 2f 40 00       	mov    $0x402f48,%edi
  401021:	e8 ba fc ff ff       	callq  400ce0 <puts@plt>
  401026:	bf 5c 30 40 00       	mov    $0x40305c,%edi
  40102b:	e8 b0 fc ff ff       	callq  400ce0 <puts@plt>
  401030:	bf 00 00 00 00       	mov    $0x0,%edi
  401035:	e8 36 fe ff ff       	callq  400e70 <exit@plt>

000000000040103a <initialize_target>:
  40103a:	55                   	push   %rbp
  40103b:	53                   	push   %rbx
  40103c:	48 81 ec 18 21 00 00 	sub    $0x2118,%rsp
  401043:	89 f5                	mov    %esi,%ebp
  401045:	64 48 8b 04 25 28 00 	mov    %fs:0x28,%rax
  40104c:	00 00 
  40104e:	48 89 84 24 08 21 00 	mov    %rax,0x2108(%rsp)
  401055:	00 
  401056:	31 c0                	xor    %eax,%eax
  401058:	89 3d ba 34 20 00    	mov    %edi,0x2034ba(%rip)        # 604518 <check_level>
  40105e:	8b 3d 04 31 20 00    	mov    0x203104(%rip),%edi        # 604168 <target_id>
  401064:	e8 7a 1d 00 00       	callq  402de3 <gencookie>
  401069:	89 05 b5 34 20 00    	mov    %eax,0x2034b5(%rip)        # 604524 <cookie>
  40106f:	89 c7                	mov    %eax,%edi
  401071:	e8 6d 1d 00 00       	callq  402de3 <gencookie>
  401076:	89 05 a4 34 20 00    	mov    %eax,0x2034a4(%rip)        # 604520 <authkey>
  40107c:	8b 05 e6 30 20 00    	mov    0x2030e6(%rip),%eax        # 604168 <target_id>
  401082:	8d 78 01             	lea    0x1(%rax),%edi
  401085:	e8 26 fc ff ff       	callq  400cb0 <srandom@plt>
  40108a:	e8 51 fd ff ff       	callq  400de0 <random@plt>
  40108f:	89 c7                	mov    %eax,%edi
  401091:	e8 d7 02 00 00       	callq  40136d <scramble>
  401096:	89 c3                	mov    %eax,%ebx
  401098:	85 ed                	test   %ebp,%ebp
  40109a:	74 18                	je     4010b4 <initialize_target+0x7a>
  40109c:	bf 00 00 00 00       	mov    $0x0,%edi
  4010a1:	e8 2a fd ff ff       	callq  400dd0 <time@plt>
  4010a6:	89 c7                	mov    %eax,%edi
  4010a8:	e8 03 fc ff ff       	callq  400cb0 <srandom@plt>
  4010ad:	e8 2e fd ff ff       	callq  400de0 <random@plt>
  4010b2:	eb 05                	jmp    4010b9 <initialize_target+0x7f>
  4010b4:	b8 00 00 00 00       	mov    $0x0,%eax
  4010b9:	01 c3                	add    %eax,%ebx
  4010bb:	0f b7 db             	movzwl %bx,%ebx
  4010be:	8d 04 dd 00 01 00 00 	lea    0x100(,%rbx,8),%eax
  4010c5:	89 c0                	mov    %eax,%eax
  4010c7:	48 89 05 d2 33 20 00 	mov    %rax,0x2033d2(%rip)        # 6044a0 <buf_offset>
  4010ce:	c6 05 73 40 20 00 63 	movb   $0x63,0x204073(%rip)        # 605148 <target_prefix>
  4010d5:	83 3d cc 33 20 00 00 	cmpl   $0x0,0x2033cc(%rip)        # 6044a8 <notify>
  4010dc:	0f 84 8f 00 00 00    	je     401171 <initialize_target+0x137>
  4010e2:	83 3d 3f 34 20 00 00 	cmpl   $0x0,0x20343f(%rip)        # 604528 <is_checker>
  4010e9:	0f 85 82 00 00 00    	jne    401171 <initialize_target+0x137>
  4010ef:	be 00 01 00 00       	mov    $0x100,%esi
  4010f4:	48 89 e7             	mov    %rsp,%rdi
  4010f7:	e8 64 fd ff ff       	callq  400e60 <gethostname@plt>
  4010fc:	85 c0                	test   %eax,%eax
  4010fe:	74 25                	je     401125 <initialize_target+0xeb>
  401100:	bf 78 2f 40 00       	mov    $0x402f78,%edi
  401105:	e8 d6 fb ff ff       	callq  400ce0 <puts@plt>
  40110a:	bf 08 00 00 00       	mov    $0x8,%edi
  40110f:	e8 5c fd ff ff       	callq  400e70 <exit@plt>
  401114:	48 89 e6             	mov    %rsp,%rsi
  401117:	e8 74 fb ff ff       	callq  400c90 <strcasecmp@plt>
  40111c:	85 c0                	test   %eax,%eax
  40111e:	74 1a                	je     40113a <initialize_target+0x100>
  401120:	83 c3 01             	add    $0x1,%ebx
  401123:	eb 05                	jmp    40112a <initialize_target+0xf0>
  401125:	bb 00 00 00 00       	mov    $0x0,%ebx
  40112a:	48 63 c3             	movslq %ebx,%rax
  40112d:	48 8b 3c c5 80 41 60 	mov    0x604180(,%rax,8),%rdi
  401134:	00 
  401135:	48 85 ff             	test   %rdi,%rdi
  401138:	75 da                	jne    401114 <initialize_target+0xda>
  40113a:	48 8d bc 24 00 01 00 	lea    0x100(%rsp),%rdi
  401141:	00 
  401142:	e8 04 1a 00 00       	callq  402b4b <init_driver>
  401147:	85 c0                	test   %eax,%eax
  401149:	79 26                	jns    401171 <initialize_target+0x137>
  40114b:	48 8d 94 24 00 01 00 	lea    0x100(%rsp),%rdx
  401152:	00 
  401153:	be b0 2f 40 00       	mov    $0x402fb0,%esi
  401158:	bf 01 00 00 00       	mov    $0x1,%edi
  40115d:	b8 00 00 00 00       	mov    $0x0,%eax
  401162:	e8 b9 fc ff ff       	callq  400e20 <__printf_chk@plt>
  401167:	bf 08 00 00 00       	mov    $0x8,%edi
  40116c:	e8 ff fc ff ff       	callq  400e70 <exit@plt>
  401171:	48 8b 84 24 08 21 00 	mov    0x2108(%rsp),%rax
  401178:	00 
  401179:	64 48 33 04 25 28 00 	xor    %fs:0x28,%rax
  401180:	00 00 
  401182:	74 05                	je     401189 <initialize_target+0x14f>
  401184:	e8 77 fb ff ff       	callq  400d00 <__stack_chk_fail@plt>
  401189:	48 81 c4 18 21 00 00 	add    $0x2118,%rsp
  401190:	5b                   	pop    %rbx
  401191:	5d                   	pop    %rbp
  401192:	c3                   	retq   

0000000000401193 <main>:
  401193:	41 56                	push   %r14
  401195:	41 55                	push   %r13
  401197:	41 54                	push   %r12
  401199:	55                   	push   %rbp
  40119a:	53                   	push   %rbx
  40119b:	41 89 fc             	mov    %edi,%r12d
  40119e:	48 89 f3             	mov    %rsi,%rbx
  4011a1:	be be 1e 40 00       	mov    $0x401ebe,%esi
  4011a6:	bf 0b 00 00 00       	mov    $0xb,%edi
  4011ab:	e8 c0 fb ff ff       	callq  400d70 <signal@plt>
  4011b0:	be 70 1e 40 00       	mov    $0x401e70,%esi
  4011b5:	bf 07 00 00 00       	mov    $0x7,%edi
  4011ba:	e8 b1 fb ff ff       	callq  400d70 <signal@plt>
  4011bf:	be 0c 1f 40 00       	mov    $0x401f0c,%esi
  4011c4:	bf 04 00 00 00       	mov    $0x4,%edi
  4011c9:	e8 a2 fb ff ff       	callq  400d70 <signal@plt>
  4011ce:	83 3d 53 33 20 00 00 	cmpl   $0x0,0x203353(%rip)        # 604528 <is_checker>
  4011d5:	74 20                	je     4011f7 <main+0x64>
  4011d7:	be 5a 1f 40 00       	mov    $0x401f5a,%esi
  4011dc:	bf 0e 00 00 00       	mov    $0xe,%edi
  4011e1:	e8 8a fb ff ff       	callq  400d70 <signal@plt>
  4011e6:	bf 05 00 00 00       	mov    $0x5,%edi
  4011eb:	e8 40 fb ff ff       	callq  400d30 <alarm@plt>
  4011f0:	bd 7a 30 40 00       	mov    $0x40307a,%ebp
  4011f5:	eb 05                	jmp    4011fc <main+0x69>
  4011f7:	bd 75 30 40 00       	mov    $0x403075,%ebp
  4011fc:	48 8b 05 bd 32 20 00 	mov    0x2032bd(%rip),%rax        # 6044c0 <stdin@@GLIBC_2.2.5>
  401203:	48 89 05 06 33 20 00 	mov    %rax,0x203306(%rip)        # 604510 <infile>
  40120a:	41 bd 00 00 00 00    	mov    $0x0,%r13d
  401210:	41 be 00 00 00 00    	mov    $0x0,%r14d
  401216:	e9 c6 00 00 00       	jmpq   4012e1 <main+0x14e>
  40121b:	83 e8 61             	sub    $0x61,%eax
  40121e:	3c 10                	cmp    $0x10,%al
  401220:	0f 87 9c 00 00 00    	ja     4012c2 <main+0x12f>
  401226:	0f b6 c0             	movzbl %al,%eax
  401229:	ff 24 c5 c0 30 40 00 	jmpq   *0x4030c0(,%rax,8)
  401230:	48 8b 3b             	mov    (%rbx),%rdi
  401233:	e8 78 fd ff ff       	callq  400fb0 <usage>
  401238:	be 7e 31 40 00       	mov    $0x40317e,%esi
  40123d:	48 8b 3d 9c 32 20 00 	mov    0x20329c(%rip),%rdi        # 6044e0 <optarg@@GLIBC_2.2.5>
  401244:	e8 e7 fb ff ff       	callq  400e30 <fopen@plt>
  401249:	48 89 05 c0 32 20 00 	mov    %rax,0x2032c0(%rip)        # 604510 <infile>
  401250:	48 85 c0             	test   %rax,%rax
  401253:	0f 85 88 00 00 00    	jne    4012e1 <main+0x14e>
  401259:	48 8b 0d 80 32 20 00 	mov    0x203280(%rip),%rcx        # 6044e0 <optarg@@GLIBC_2.2.5>
  401260:	ba 82 30 40 00       	mov    $0x403082,%edx
  401265:	be 01 00 00 00       	mov    $0x1,%esi
  40126a:	48 8b 3d 77 32 20 00 	mov    0x203277(%rip),%rdi        # 6044e8 <stderr@@GLIBC_2.2.5>
  401271:	e8 1a fc ff ff       	callq  400e90 <__fprintf_chk@plt>
  401276:	b8 01 00 00 00       	mov    $0x1,%eax
  40127b:	e9 e4 00 00 00       	jmpq   401364 <main+0x1d1>
  401280:	ba 10 00 00 00       	mov    $0x10,%edx
  401285:	be 00 00 00 00       	mov    $0x0,%esi
  40128a:	48 8b 3d 4f 32 20 00 	mov    0x20324f(%rip),%rdi        # 6044e0 <optarg@@GLIBC_2.2.5>
  401291:	e8 ba fb ff ff       	callq  400e50 <strtoul@plt>
  401296:	41 89 c6             	mov    %eax,%r14d
  401299:	eb 46                	jmp    4012e1 <main+0x14e>
  40129b:	ba 0a 00 00 00       	mov    $0xa,%edx
  4012a0:	be 00 00 00 00       	mov    $0x0,%esi
  4012a5:	48 8b 3d 34 32 20 00 	mov    0x203234(%rip),%rdi        # 6044e0 <optarg@@GLIBC_2.2.5>
  4012ac:	e8 ff fa ff ff       	callq  400db0 <strtol@plt>
  4012b1:	41 89 c5             	mov    %eax,%r13d
  4012b4:	eb 2b                	jmp    4012e1 <main+0x14e>
  4012b6:	c7 05 e8 31 20 00 00 	movl   $0x0,0x2031e8(%rip)        # 6044a8 <notify>
  4012bd:	00 00 00 
  4012c0:	eb 1f                	jmp    4012e1 <main+0x14e>
  4012c2:	0f be d2             	movsbl %dl,%edx
  4012c5:	be 9f 30 40 00       	mov    $0x40309f,%esi
  4012ca:	bf 01 00 00 00       	mov    $0x1,%edi
  4012cf:	b8 00 00 00 00       	mov    $0x0,%eax
  4012d4:	e8 47 fb ff ff       	callq  400e20 <__printf_chk@plt>
  4012d9:	48 8b 3b             	mov    (%rbx),%rdi
  4012dc:	e8 cf fc ff ff       	callq  400fb0 <usage>
  4012e1:	48 89 ea             	mov    %rbp,%rdx
  4012e4:	48 89 de             	mov    %rbx,%rsi
  4012e7:	44 89 e7             	mov    %r12d,%edi
  4012ea:	e8 51 fb ff ff       	callq  400e40 <getopt@plt>
  4012ef:	89 c2                	mov    %eax,%edx
  4012f1:	3c ff                	cmp    $0xff,%al
  4012f3:	0f 85 22 ff ff ff    	jne    40121b <main+0x88>
  4012f9:	be 00 00 00 00       	mov    $0x0,%esi
  4012fe:	44 89 ef             	mov    %r13d,%edi
  401301:	e8 34 fd ff ff       	callq  40103a <initialize_target>
  401306:	83 3d 1b 32 20 00 00 	cmpl   $0x0,0x20321b(%rip)        # 604528 <is_checker>
  40130d:	74 2a                	je     401339 <main+0x1a6>
  40130f:	44 3b 35 0a 32 20 00 	cmp    0x20320a(%rip),%r14d        # 604520 <authkey>
  401316:	74 21                	je     401339 <main+0x1a6>
  401318:	44 89 f2             	mov    %r14d,%edx
  40131b:	be d8 2f 40 00       	mov    $0x402fd8,%esi
  401320:	bf 01 00 00 00       	mov    $0x1,%edi
  401325:	b8 00 00 00 00       	mov    $0x0,%eax
  40132a:	e8 f1 fa ff ff       	callq  400e20 <__printf_chk@plt>
  40132f:	b8 00 00 00 00       	mov    $0x0,%eax
  401334:	e8 c2 07 00 00       	callq  401afb <check_fail>
  401339:	8b 15 e5 31 20 00    	mov    0x2031e5(%rip),%edx        # 604524 <cookie>
  40133f:	be b2 30 40 00       	mov    $0x4030b2,%esi
  401344:	bf 01 00 00 00       	mov    $0x1,%edi
  401349:	b8 00 00 00 00       	mov    $0x0,%eax
  40134e:	e8 cd fa ff ff       	callq  400e20 <__printf_chk@plt>
  401353:	48 8b 3d 46 31 20 00 	mov    0x203146(%rip),%rdi        # 6044a0 <buf_offset>
  40135a:	e8 fb 0c 00 00       	callq  40205a <stable_launch>
  40135f:	b8 00 00 00 00       	mov    $0x0,%eax
  401364:	5b                   	pop    %rbx
  401365:	5d                   	pop    %rbp
  401366:	41 5c                	pop    %r12
  401368:	41 5d                	pop    %r13
  40136a:	41 5e                	pop    %r14
  40136c:	c3                   	retq   

000000000040136d <scramble>:
  40136d:	b8 00 00 00 00       	mov    $0x0,%eax
  401372:	eb 11                	jmp    401385 <scramble+0x18>
  401374:	69 c8 54 08 00 00    	imul   $0x854,%eax,%ecx
  40137a:	01 f9                	add    %edi,%ecx
  40137c:	89 c2                	mov    %eax,%edx
  40137e:	89 4c 94 c8          	mov    %ecx,-0x38(%rsp,%rdx,4)
  401382:	83 c0 01             	add    $0x1,%eax
  401385:	83 f8 09             	cmp    $0x9,%eax
  401388:	76 ea                	jbe    401374 <scramble+0x7>
  40138a:	8b 44 24 c8          	mov    -0x38(%rsp),%eax
  40138e:	69 c0 bb e8 00 00    	imul   $0xe8bb,%eax,%eax
  401394:	89 44 24 c8          	mov    %eax,-0x38(%rsp)
  401398:	8b 44 24 e4          	mov    -0x1c(%rsp),%eax
  40139c:	69 c0 10 61 00 00    	imul   $0x6110,%eax,%eax
  4013a2:	89 44 24 e4          	mov    %eax,-0x1c(%rsp)
  4013a6:	8b 44 24 e8          	mov    -0x18(%rsp),%eax
  4013aa:	69 c0 fa 29 00 00    	imul   $0x29fa,%eax,%eax
  4013b0:	89 44 24 e8          	mov    %eax,-0x18(%rsp)
  4013b4:	8b 44 24 d4          	mov    -0x2c(%rsp),%eax
  4013b8:	69 c0 36 f9 00 00    	imul   $0xf936,%eax,%eax
  4013be:	89 44 24 d4          	mov    %eax,-0x2c(%rsp)
  4013c2:	8b 44 24 d0          	mov    -0x30(%rsp),%eax
  4013c6:	69 c0 a9 71 00 00    	imul   $0x71a9,%eax,%eax
  4013cc:	89 44 24 d0          	mov    %eax,-0x30(%rsp)
  4013d0:	8b 44 24 e8          	mov    -0x18(%rsp),%eax
  4013d4:	69 c0 66 5d 00 00    	imul   $0x5d66,%eax,%eax
  4013da:	89 44 24 e8          	mov    %eax,-0x18(%rsp)
  4013de:	8b 44 24 ec          	mov    -0x14(%rsp),%eax
  4013e2:	69 c0 e9 f1 00 00    	imul   $0xf1e9,%eax,%eax
  4013e8:	89 44 24 ec          	mov    %eax,-0x14(%rsp)
  4013ec:	8b 44 24 d8          	mov    -0x28(%rsp),%eax
  4013f0:	69 c0 ae 9f 00 00    	imul   $0x9fae,%eax,%eax
  4013f6:	89 44 24 d8          	mov    %eax,-0x28(%rsp)
  4013fa:	8b 44 24 e8          	mov    -0x18(%rsp),%eax
  4013fe:	69 c0 39 e5 00 00    	imul   $0xe539,%eax,%eax
  401404:	89 44 24 e8          	mov    %eax,-0x18(%rsp)
  401408:	8b 44 24 c8          	mov    -0x38(%rsp),%eax
  40140c:	69 c0 43 a2 00 00    	imul   $0xa243,%eax,%eax
  401412:	89 44 24 c8          	mov    %eax,-0x38(%rsp)
  401416:	8b 44 24 e8          	mov    -0x18(%rsp),%eax
  40141a:	69 c0 32 76 00 00    	imul   $0x7632,%eax,%eax
  401420:	89 44 24 e8          	mov    %eax,-0x18(%rsp)
  401424:	8b 44 24 d4          	mov    -0x2c(%rsp),%eax
  401428:	69 c0 03 69 00 00    	imul   $0x6903,%eax,%eax
  40142e:	89 44 24 d4          	mov    %eax,-0x2c(%rsp)
  401432:	8b 44 24 c8          	mov    -0x38(%rsp),%eax
  401436:	69 c0 c3 c7 00 00    	imul   $0xc7c3,%eax,%eax
  40143c:	89 44 24 c8          	mov    %eax,-0x38(%rsp)
  401440:	8b 44 24 e0          	mov    -0x20(%rsp),%eax
  401444:	69 c0 45 bd 00 00    	imul   $0xbd45,%eax,%eax
  40144a:	89 44 24 e0          	mov    %eax,-0x20(%rsp)
  40144e:	8b 44 24 ec          	mov    -0x14(%rsp),%eax
  401452:	69 c0 6a ca 00 00    	imul   $0xca6a,%eax,%eax
  401458:	89 44 24 ec          	mov    %eax,-0x14(%rsp)
  40145c:	8b 44 24 e4          	mov    -0x1c(%rsp),%eax
  401460:	69 c0 7c 0b 00 00    	imul   $0xb7c,%eax,%eax
  401466:	89 44 24 e4          	mov    %eax,-0x1c(%rsp)
  40146a:	8b 44 24 c8          	mov    -0x38(%rsp),%eax
  40146e:	69 c0 65 91 00 00    	imul   $0x9165,%eax,%eax
  401474:	89 44 24 c8          	mov    %eax,-0x38(%rsp)
  401478:	8b 44 24 d0          	mov    -0x30(%rsp),%eax
  40147c:	69 c0 58 91 00 00    	imul   $0x9158,%eax,%eax
  401482:	89 44 24 d0          	mov    %eax,-0x30(%rsp)
  401486:	8b 44 24 d0          	mov    -0x30(%rsp),%eax
  40148a:	69 c0 87 bc 00 00    	imul   $0xbc87,%eax,%eax
  401490:	89 44 24 d0          	mov    %eax,-0x30(%rsp)
  401494:	8b 44 24 e0          	mov    -0x20(%rsp),%eax
  401498:	69 c0 8b 76 00 00    	imul   $0x768b,%eax,%eax
  40149e:	89 44 24 e0          	mov    %eax,-0x20(%rsp)
  4014a2:	8b 44 24 ec          	mov    -0x14(%rsp),%eax
  4014a6:	69 c0 1c ed 00 00    	imul   $0xed1c,%eax,%eax
  4014ac:	89 44 24 ec          	mov    %eax,-0x14(%rsp)
  4014b0:	8b 44 24 e4          	mov    -0x1c(%rsp),%eax
  4014b4:	69 c0 94 ed 00 00    	imul   $0xed94,%eax,%eax
  4014ba:	89 44 24 e4          	mov    %eax,-0x1c(%rsp)
  4014be:	8b 44 24 e4          	mov    -0x1c(%rsp),%eax
  4014c2:	69 c0 ae bb 00 00    	imul   $0xbbae,%eax,%eax
  4014c8:	89 44 24 e4          	mov    %eax,-0x1c(%rsp)
  4014cc:	8b 44 24 d8          	mov    -0x28(%rsp),%eax
  4014d0:	69 c0 53 4d 00 00    	imul   $0x4d53,%eax,%eax
  4014d6:	89 44 24 d8          	mov    %eax,-0x28(%rsp)
  4014da:	8b 44 24 c8          	mov    -0x38(%rsp),%eax
  4014de:	69 c0 ad cb 00 00    	imul   $0xcbad,%eax,%eax
  4014e4:	89 44 24 c8          	mov    %eax,-0x38(%rsp)
  4014e8:	8b 44 24 dc          	mov    -0x24(%rsp),%eax
  4014ec:	69 c0 2a 38 00 00    	imul   $0x382a,%eax,%eax
  4014f2:	89 44 24 dc          	mov    %eax,-0x24(%rsp)
  4014f6:	8b 44 24 dc          	mov    -0x24(%rsp),%eax
  4014fa:	69 c0 41 f5 00 00    	imul   $0xf541,%eax,%eax
  401500:	89 44 24 dc          	mov    %eax,-0x24(%rsp)
  401504:	8b 44 24 d0          	mov    -0x30(%rsp),%eax
  401508:	69 c0 5a 8c 00 00    	imul   $0x8c5a,%eax,%eax
  40150e:	89 44 24 d0          	mov    %eax,-0x30(%rsp)
  401512:	8b 44 24 ec          	mov    -0x14(%rsp),%eax
  401516:	69 c0 bd 40 00 00    	imul   $0x40bd,%eax,%eax
  40151c:	89 44 24 ec          	mov    %eax,-0x14(%rsp)
  401520:	8b 44 24 e4          	mov    -0x1c(%rsp),%eax
  401524:	69 c0 2d c0 00 00    	imul   $0xc02d,%eax,%eax
  40152a:	89 44 24 e4          	mov    %eax,-0x1c(%rsp)
  40152e:	8b 44 24 ec          	mov    -0x14(%rsp),%eax
  401532:	69 c0 b1 da 00 00    	imul   $0xdab1,%eax,%eax
  401538:	89 44 24 ec          	mov    %eax,-0x14(%rsp)
  40153c:	8b 44 24 d0          	mov    -0x30(%rsp),%eax
  401540:	69 c0 4c be 00 00    	imul   $0xbe4c,%eax,%eax
  401546:	89 44 24 d0          	mov    %eax,-0x30(%rsp)
  40154a:	8b 44 24 c8          	mov    -0x38(%rsp),%eax
  40154e:	69 c0 36 38 00 00    	imul   $0x3836,%eax,%eax
  401554:	89 44 24 c8          	mov    %eax,-0x38(%rsp)
  401558:	8b 44 24 d4          	mov    -0x2c(%rsp),%eax
  40155c:	69 c0 76 27 00 00    	imul   $0x2776,%eax,%eax
  401562:	89 44 24 d4          	mov    %eax,-0x2c(%rsp)
  401566:	8b 44 24 d8          	mov    -0x28(%rsp),%eax
  40156a:	69 c0 32 da 00 00    	imul   $0xda32,%eax,%eax
  401570:	89 44 24 d8          	mov    %eax,-0x28(%rsp)
  401574:	8b 44 24 e8          	mov    -0x18(%rsp),%eax
  401578:	69 c0 ed 22 00 00    	imul   $0x22ed,%eax,%eax
  40157e:	89 44 24 e8          	mov    %eax,-0x18(%rsp)
  401582:	8b 44 24 e8          	mov    -0x18(%rsp),%eax
  401586:	69 c0 f3 71 00 00    	imul   $0x71f3,%eax,%eax
  40158c:	89 44 24 e8          	mov    %eax,-0x18(%rsp)
  401590:	8b 44 24 d8          	mov    -0x28(%rsp),%eax
  401594:	69 c0 53 a6 00 00    	imul   $0xa653,%eax,%eax
  40159a:	89 44 24 d8          	mov    %eax,-0x28(%rsp)
  40159e:	8b 44 24 e8          	mov    -0x18(%rsp),%eax
  4015a2:	69 c0 c5 9d 00 00    	imul   $0x9dc5,%eax,%eax
  4015a8:	89 44 24 e8          	mov    %eax,-0x18(%rsp)
  4015ac:	8b 44 24 d0          	mov    -0x30(%rsp),%eax
  4015b0:	69 c0 8a ce 00 00    	imul   $0xce8a,%eax,%eax
  4015b6:	89 44 24 d0          	mov    %eax,-0x30(%rsp)
  4015ba:	8b 44 24 e8          	mov    -0x18(%rsp),%eax
  4015be:	69 c0 3c e3 00 00    	imul   $0xe33c,%eax,%eax
  4015c4:	89 44 24 e8          	mov    %eax,-0x18(%rsp)
  4015c8:	8b 44 24 ec          	mov    -0x14(%rsp),%eax
  4015cc:	69 c0 51 ab 00 00    	imul   $0xab51,%eax,%eax
  4015d2:	89 44 24 ec          	mov    %eax,-0x14(%rsp)
  4015d6:	8b 44 24 e4          	mov    -0x1c(%rsp),%eax
  4015da:	69 c0 e1 a7 00 00    	imul   $0xa7e1,%eax,%eax
  4015e0:	89 44 24 e4          	mov    %eax,-0x1c(%rsp)
  4015e4:	8b 44 24 c8          	mov    -0x38(%rsp),%eax
  4015e8:	69 c0 82 95 00 00    	imul   $0x9582,%eax,%eax
  4015ee:	89 44 24 c8          	mov    %eax,-0x38(%rsp)
  4015f2:	8b 44 24 d4          	mov    -0x2c(%rsp),%eax
  4015f6:	69 c0 4a 81 00 00    	imul   $0x814a,%eax,%eax
  4015fc:	89 44 24 d4          	mov    %eax,-0x2c(%rsp)
  401600:	8b 44 24 ec          	mov    -0x14(%rsp),%eax
  401604:	69 c0 c5 f3 00 00    	imul   $0xf3c5,%eax,%eax
  40160a:	89 44 24 ec          	mov    %eax,-0x14(%rsp)
  40160e:	8b 44 24 cc          	mov    -0x34(%rsp),%eax
  401612:	69 c0 58 21 00 00    	imul   $0x2158,%eax,%eax
  401618:	89 44 24 cc          	mov    %eax,-0x34(%rsp)
  40161c:	8b 44 24 e0          	mov    -0x20(%rsp),%eax
  401620:	69 c0 12 c8 00 00    	imul   $0xc812,%eax,%eax
  401626:	89 44 24 e0          	mov    %eax,-0x20(%rsp)
  40162a:	8b 44 24 e8          	mov    -0x18(%rsp),%eax
  40162e:	69 c0 b5 01 00 00    	imul   $0x1b5,%eax,%eax
  401634:	89 44 24 e8          	mov    %eax,-0x18(%rsp)
  401638:	8b 44 24 e4          	mov    -0x1c(%rsp),%eax
  40163c:	69 c0 4b 4e 00 00    	imul   $0x4e4b,%eax,%eax
  401642:	89 44 24 e4          	mov    %eax,-0x1c(%rsp)
  401646:	8b 44 24 cc          	mov    -0x34(%rsp),%eax
  40164a:	69 c0 8a 8d 00 00    	imul   $0x8d8a,%eax,%eax
  401650:	89 44 24 cc          	mov    %eax,-0x34(%rsp)
  401654:	8b 44 24 c8          	mov    -0x38(%rsp),%eax
  401658:	69 c0 35 a3 00 00    	imul   $0xa335,%eax,%eax
  40165e:	89 44 24 c8          	mov    %eax,-0x38(%rsp)
  401662:	8b 44 24 d0          	mov    -0x30(%rsp),%eax
  401666:	69 c0 bb 81 00 00    	imul   $0x81bb,%eax,%eax
  40166c:	89 44 24 d0          	mov    %eax,-0x30(%rsp)
  401670:	8b 44 24 e0          	mov    -0x20(%rsp),%eax
  401674:	69 c0 20 2d 00 00    	imul   $0x2d20,%eax,%eax
  40167a:	89 44 24 e0          	mov    %eax,-0x20(%rsp)
  40167e:	8b 44 24 e0          	mov    -0x20(%rsp),%eax
  401682:	69 c0 2e 3d 00 00    	imul   $0x3d2e,%eax,%eax
  401688:	89 44 24 e0          	mov    %eax,-0x20(%rsp)
  40168c:	8b 44 24 d0          	mov    -0x30(%rsp),%eax
  401690:	69 c0 f2 88 00 00    	imul   $0x88f2,%eax,%eax
  401696:	89 44 24 d0          	mov    %eax,-0x30(%rsp)
  40169a:	8b 44 24 e4          	mov    -0x1c(%rsp),%eax
  40169e:	69 c0 5e 02 00 00    	imul   $0x25e,%eax,%eax
  4016a4:	89 44 24 e4          	mov    %eax,-0x1c(%rsp)
  4016a8:	8b 44 24 ec          	mov    -0x14(%rsp),%eax
  4016ac:	69 c0 e8 f8 00 00    	imul   $0xf8e8,%eax,%eax
  4016b2:	89 44 24 ec          	mov    %eax,-0x14(%rsp)
  4016b6:	8b 44 24 d8          	mov    -0x28(%rsp),%eax
  4016ba:	69 c0 ee 6b 00 00    	imul   $0x6bee,%eax,%eax
  4016c0:	89 44 24 d8          	mov    %eax,-0x28(%rsp)
  4016c4:	8b 44 24 d8          	mov    -0x28(%rsp),%eax
  4016c8:	69 c0 dd 92 00 00    	imul   $0x92dd,%eax,%eax
  4016ce:	89 44 24 d8          	mov    %eax,-0x28(%rsp)
  4016d2:	8b 44 24 e8          	mov    -0x18(%rsp),%eax
  4016d6:	69 c0 19 e4 00 00    	imul   $0xe419,%eax,%eax
  4016dc:	89 44 24 e8          	mov    %eax,-0x18(%rsp)
  4016e0:	8b 44 24 cc          	mov    -0x34(%rsp),%eax
  4016e4:	69 c0 34 49 00 00    	imul   $0x4934,%eax,%eax
  4016ea:	89 44 24 cc          	mov    %eax,-0x34(%rsp)
  4016ee:	8b 44 24 e0          	mov    -0x20(%rsp),%eax
  4016f2:	69 c0 b3 38 00 00    	imul   $0x38b3,%eax,%eax
  4016f8:	89 44 24 e0          	mov    %eax,-0x20(%rsp)
  4016fc:	8b 44 24 d8          	mov    -0x28(%rsp),%eax
  401700:	69 c0 00 5f 00 00    	imul   $0x5f00,%eax,%eax
  401706:	89 44 24 d8          	mov    %eax,-0x28(%rsp)
  40170a:	8b 44 24 ec          	mov    -0x14(%rsp),%eax
  40170e:	69 c0 ce 00 00 00    	imul   $0xce,%eax,%eax
  401714:	89 44 24 ec          	mov    %eax,-0x14(%rsp)
  401718:	8b 44 24 cc          	mov    -0x34(%rsp),%eax
  40171c:	69 c0 4f 16 00 00    	imul   $0x164f,%eax,%eax
  401722:	89 44 24 cc          	mov    %eax,-0x34(%rsp)
  401726:	8b 44 24 c8          	mov    -0x38(%rsp),%eax
  40172a:	69 c0 84 1e 00 00    	imul   $0x1e84,%eax,%eax
  401730:	89 44 24 c8          	mov    %eax,-0x38(%rsp)
  401734:	8b 44 24 cc          	mov    -0x34(%rsp),%eax
  401738:	69 c0 d7 8d 00 00    	imul   $0x8dd7,%eax,%eax
  40173e:	89 44 24 cc          	mov    %eax,-0x34(%rsp)
  401742:	8b 44 24 e4          	mov    -0x1c(%rsp),%eax
  401746:	69 c0 0c 03 00 00    	imul   $0x30c,%eax,%eax
  40174c:	89 44 24 e4          	mov    %eax,-0x1c(%rsp)
  401750:	8b 44 24 e0          	mov    -0x20(%rsp),%eax
  401754:	69 c0 bf bf 00 00    	imul   $0xbfbf,%eax,%eax
  40175a:	89 44 24 e0          	mov    %eax,-0x20(%rsp)
  40175e:	8b 44 24 e4          	mov    -0x1c(%rsp),%eax
  401762:	69 c0 a1 b6 00 00    	imul   $0xb6a1,%eax,%eax
  401768:	89 44 24 e4          	mov    %eax,-0x1c(%rsp)
  40176c:	8b 44 24 d4          	mov    -0x2c(%rsp),%eax
  401770:	69 c0 a4 60 00 00    	imul   $0x60a4,%eax,%eax
  401776:	89 44 24 d4          	mov    %eax,-0x2c(%rsp)
  40177a:	8b 44 24 d0          	mov    -0x30(%rsp),%eax
  40177e:	69 c0 f4 7c 00 00    	imul   $0x7cf4,%eax,%eax
  401784:	89 44 24 d0          	mov    %eax,-0x30(%rsp)
  401788:	8b 44 24 c8          	mov    -0x38(%rsp),%eax
  40178c:	69 c0 3e 63 00 00    	imul   $0x633e,%eax,%eax
  401792:	89 44 24 c8          	mov    %eax,-0x38(%rsp)
  401796:	8b 44 24 dc          	mov    -0x24(%rsp),%eax
  40179a:	69 c0 f6 e7 00 00    	imul   $0xe7f6,%eax,%eax
  4017a0:	89 44 24 dc          	mov    %eax,-0x24(%rsp)
  4017a4:	8b 44 24 e4          	mov    -0x1c(%rsp),%eax
  4017a8:	69 c0 1b d6 00 00    	imul   $0xd61b,%eax,%eax
  4017ae:	89 44 24 e4          	mov    %eax,-0x1c(%rsp)
  4017b2:	8b 44 24 cc          	mov    -0x34(%rsp),%eax
  4017b6:	69 c0 bd 7c 00 00    	imul   $0x7cbd,%eax,%eax
  4017bc:	89 44 24 cc          	mov    %eax,-0x34(%rsp)
  4017c0:	8b 44 24 d8          	mov    -0x28(%rsp),%eax
  4017c4:	69 c0 81 d1 00 00    	imul   $0xd181,%eax,%eax
  4017ca:	89 44 24 d8          	mov    %eax,-0x28(%rsp)
  4017ce:	8b 44 24 cc          	mov    -0x34(%rsp),%eax
  4017d2:	69 c0 95 30 00 00    	imul   $0x3095,%eax,%eax
  4017d8:	89 44 24 cc          	mov    %eax,-0x34(%rsp)
  4017dc:	8b 44 24 dc          	mov    -0x24(%rsp),%eax
  4017e0:	69 c0 d8 ef 00 00    	imul   $0xefd8,%eax,%eax
  4017e6:	89 44 24 dc          	mov    %eax,-0x24(%rsp)
  4017ea:	8b 44 24 d4          	mov    -0x2c(%rsp),%eax
  4017ee:	69 c0 cc dd 00 00    	imul   $0xddcc,%eax,%eax
  4017f4:	89 44 24 d4          	mov    %eax,-0x2c(%rsp)
  4017f8:	8b 44 24 cc          	mov    -0x34(%rsp),%eax
  4017fc:	69 c0 bc bf 00 00    	imul   $0xbfbc,%eax,%eax
  401802:	89 44 24 cc          	mov    %eax,-0x34(%rsp)
  401806:	8b 44 24 ec          	mov    -0x14(%rsp),%eax
  40180a:	69 c0 ab bf 00 00    	imul   $0xbfab,%eax,%eax
  401810:	89 44 24 ec          	mov    %eax,-0x14(%rsp)
  401814:	8b 44 24 e4          	mov    -0x1c(%rsp),%eax
  401818:	69 c0 90 9c 00 00    	imul   $0x9c90,%eax,%eax
  40181e:	89 44 24 e4          	mov    %eax,-0x1c(%rsp)
  401822:	8b 44 24 d0          	mov    -0x30(%rsp),%eax
  401826:	69 c0 8a 08 00 00    	imul   $0x88a,%eax,%eax
  40182c:	89 44 24 d0          	mov    %eax,-0x30(%rsp)
  401830:	8b 44 24 dc          	mov    -0x24(%rsp),%eax
  401834:	69 c0 f1 02 00 00    	imul   $0x2f1,%eax,%eax
  40183a:	89 44 24 dc          	mov    %eax,-0x24(%rsp)
  40183e:	8b 44 24 d4          	mov    -0x2c(%rsp),%eax
  401842:	69 c0 01 a5 00 00    	imul   $0xa501,%eax,%eax
  401848:	89 44 24 d4          	mov    %eax,-0x2c(%rsp)
  40184c:	8b 44 24 e0          	mov    -0x20(%rsp),%eax
  401850:	69 c0 2a 78 00 00    	imul   $0x782a,%eax,%eax
  401856:	89 44 24 e0          	mov    %eax,-0x20(%rsp)
  40185a:	8b 44 24 d0          	mov    -0x30(%rsp),%eax
  40185e:	69 c0 22 bd 00 00    	imul   $0xbd22,%eax,%eax
  401864:	89 44 24 d0          	mov    %eax,-0x30(%rsp)
  401868:	8b 44 24 e0          	mov    -0x20(%rsp),%eax
  40186c:	69 c0 d8 0a 00 00    	imul   $0xad8,%eax,%eax
  401872:	89 44 24 e0          	mov    %eax,-0x20(%rsp)
  401876:	8b 44 24 d4          	mov    -0x2c(%rsp),%eax
  40187a:	69 c0 83 d1 00 00    	imul   $0xd183,%eax,%eax
  401880:	89 44 24 d4          	mov    %eax,-0x2c(%rsp)
  401884:	ba 00 00 00 00       	mov    $0x0,%edx
  401889:	b8 00 00 00 00       	mov    $0x0,%eax
  40188e:	eb 0b                	jmp    40189b <scramble+0x52e>
  401890:	89 d1                	mov    %edx,%ecx
  401892:	8b 4c 8c c8          	mov    -0x38(%rsp,%rcx,4),%ecx
  401896:	01 c8                	add    %ecx,%eax
  401898:	83 c2 01             	add    $0x1,%edx
  40189b:	83 fa 09             	cmp    $0x9,%edx
  40189e:	76 f0                	jbe    401890 <scramble+0x523>
  4018a0:	f3 c3                	repz retq 

00000000004018a2 <getbuf>:
  4018a2:	48 83 ec 38          	sub    $0x38,%rsp
  4018a6:	48 89 e7             	mov    %rsp,%rdi
  4018a9:	e8 82 02 00 00       	callq  401b30 <Gets>
  4018ae:	b8 01 00 00 00       	mov    $0x1,%eax
  4018b3:	48 83 c4 38          	add    $0x38,%rsp
  4018b7:	c3                   	retq   

00000000004018b8 <touch1>:
  4018b8:	48 83 ec 08          	sub    $0x8,%rsp
  4018bc:	c7 05 56 2c 20 00 01 	movl   $0x1,0x202c56(%rip)        # 60451c <vlevel>
  4018c3:	00 00 00 
  4018c6:	bf 80 31 40 00       	mov    $0x403180,%edi
  4018cb:	e8 10 f4 ff ff       	callq  400ce0 <puts@plt>
  4018d0:	bf 01 00 00 00       	mov    $0x1,%edi
  4018d5:	e8 ac 04 00 00       	callq  401d86 <validate>
  4018da:	bf 00 00 00 00       	mov    $0x0,%edi
  4018df:	e8 8c f5 ff ff       	callq  400e70 <exit@plt>

00000000004018e4 <touch2>:
  4018e4:	48 83 ec 08          	sub    $0x8,%rsp
  4018e8:	89 fa                	mov    %edi,%edx
  4018ea:	c7 05 28 2c 20 00 02 	movl   $0x2,0x202c28(%rip)        # 60451c <vlevel>
  4018f1:	00 00 00 
  4018f4:	3b 3d 2a 2c 20 00    	cmp    0x202c2a(%rip),%edi        # 604524 <cookie>
  4018fa:	75 20                	jne    40191c <touch2+0x38>
  4018fc:	be a8 31 40 00       	mov    $0x4031a8,%esi
  401901:	bf 01 00 00 00       	mov    $0x1,%edi
  401906:	b8 00 00 00 00       	mov    $0x0,%eax
  40190b:	e8 10 f5 ff ff       	callq  400e20 <__printf_chk@plt>
  401910:	bf 02 00 00 00       	mov    $0x2,%edi
  401915:	e8 6c 04 00 00       	callq  401d86 <validate>
  40191a:	eb 1e                	jmp    40193a <touch2+0x56>
  40191c:	be d0 31 40 00       	mov    $0x4031d0,%esi
  401921:	bf 01 00 00 00       	mov    $0x1,%edi
  401926:	b8 00 00 00 00       	mov    $0x0,%eax
  40192b:	e8 f0 f4 ff ff       	callq  400e20 <__printf_chk@plt>
  401930:	bf 02 00 00 00       	mov    $0x2,%edi
  401935:	e8 0e 05 00 00       	callq  401e48 <fail>
  40193a:	bf 00 00 00 00       	mov    $0x0,%edi
  40193f:	e8 2c f5 ff ff       	callq  400e70 <exit@plt>

0000000000401944 <hexmatch>:
  401944:	41 54                	push   %r12
  401946:	55                   	push   %rbp
  401947:	53                   	push   %rbx
  401948:	48 83 c4 80          	add    $0xffffffffffffff80,%rsp
  40194c:	41 89 fc             	mov    %edi,%r12d
  40194f:	48 89 f5             	mov    %rsi,%rbp
  401952:	64 48 8b 04 25 28 00 	mov    %fs:0x28,%rax
  401959:	00 00 
  40195b:	48 89 44 24 78       	mov    %rax,0x78(%rsp)
  401960:	31 c0                	xor    %eax,%eax
  401962:	e8 79 f4 ff ff       	callq  400de0 <random@plt>
  401967:	48 89 c1             	mov    %rax,%rcx
  40196a:	48 ba 0b d7 a3 70 3d 	movabs $0xa3d70a3d70a3d70b,%rdx
  401971:	0a d7 a3 
  401974:	48 f7 ea             	imul   %rdx
  401977:	48 01 ca             	add    %rcx,%rdx
  40197a:	48 c1 fa 06          	sar    $0x6,%rdx
  40197e:	48 89 c8             	mov    %rcx,%rax
  401981:	48 c1 f8 3f          	sar    $0x3f,%rax
  401985:	48 29 c2             	sub    %rax,%rdx
  401988:	48 8d 04 92          	lea    (%rdx,%rdx,4),%rax
  40198c:	48 8d 04 80          	lea    (%rax,%rax,4),%rax
  401990:	48 c1 e0 02          	shl    $0x2,%rax
  401994:	48 29 c1             	sub    %rax,%rcx
  401997:	48 8d 1c 0c          	lea    (%rsp,%rcx,1),%rbx
  40199b:	45 89 e0             	mov    %r12d,%r8d
  40199e:	b9 9d 31 40 00       	mov    $0x40319d,%ecx
  4019a3:	48 c7 c2 ff ff ff ff 	mov    $0xffffffffffffffff,%rdx
  4019aa:	be 01 00 00 00       	mov    $0x1,%esi
  4019af:	48 89 df             	mov    %rbx,%rdi
  4019b2:	b8 00 00 00 00       	mov    $0x0,%eax
  4019b7:	e8 e4 f4 ff ff       	callq  400ea0 <__sprintf_chk@plt>
  4019bc:	ba 09 00 00 00       	mov    $0x9,%edx
  4019c1:	48 89 de             	mov    %rbx,%rsi
  4019c4:	48 89 ef             	mov    %rbp,%rdi
  4019c7:	e8 f4 f2 ff ff       	callq  400cc0 <strncmp@plt>
  4019cc:	85 c0                	test   %eax,%eax
  4019ce:	0f 94 c0             	sete   %al
  4019d1:	0f b6 c0             	movzbl %al,%eax
  4019d4:	48 8b 74 24 78       	mov    0x78(%rsp),%rsi
  4019d9:	64 48 33 34 25 28 00 	xor    %fs:0x28,%rsi
  4019e0:	00 00 
  4019e2:	74 05                	je     4019e9 <hexmatch+0xa5>
  4019e4:	e8 17 f3 ff ff       	callq  400d00 <__stack_chk_fail@plt>
  4019e9:	48 83 ec 80          	sub    $0xffffffffffffff80,%rsp
  4019ed:	5b                   	pop    %rbx
  4019ee:	5d                   	pop    %rbp
  4019ef:	41 5c                	pop    %r12
  4019f1:	c3                   	retq   

00000000004019f2 <touch3>:
  4019f2:	53                   	push   %rbx
  4019f3:	48 89 fb             	mov    %rdi,%rbx
  4019f6:	c7 05 1c 2b 20 00 03 	movl   $0x3,0x202b1c(%rip)        # 60451c <vlevel>
  4019fd:	00 00 00 
  401a00:	48 89 fe             	mov    %rdi,%rsi
  401a03:	8b 3d 1b 2b 20 00    	mov    0x202b1b(%rip),%edi        # 604524 <cookie>
  401a09:	e8 36 ff ff ff       	callq  401944 <hexmatch>
  401a0e:	85 c0                	test   %eax,%eax
  401a10:	74 23                	je     401a35 <touch3+0x43>
  401a12:	48 89 da             	mov    %rbx,%rdx
  401a15:	be f8 31 40 00       	mov    $0x4031f8,%esi
  401a1a:	bf 01 00 00 00       	mov    $0x1,%edi
  401a1f:	b8 00 00 00 00       	mov    $0x0,%eax
  401a24:	e8 f7 f3 ff ff       	callq  400e20 <__printf_chk@plt>
  401a29:	bf 03 00 00 00       	mov    $0x3,%edi
  401a2e:	e8 53 03 00 00       	callq  401d86 <validate>
  401a33:	eb 21                	jmp    401a56 <touch3+0x64>
  401a35:	48 89 da             	mov    %rbx,%rdx
  401a38:	be 20 32 40 00       	mov    $0x403220,%esi
  401a3d:	bf 01 00 00 00       	mov    $0x1,%edi
  401a42:	b8 00 00 00 00       	mov    $0x0,%eax
  401a47:	e8 d4 f3 ff ff       	callq  400e20 <__printf_chk@plt>
  401a4c:	bf 03 00 00 00       	mov    $0x3,%edi
  401a51:	e8 f2 03 00 00       	callq  401e48 <fail>
  401a56:	bf 00 00 00 00       	mov    $0x0,%edi
  401a5b:	e8 10 f4 ff ff       	callq  400e70 <exit@plt>

0000000000401a60 <test>:
  401a60:	48 83 ec 08          	sub    $0x8,%rsp
  401a64:	b8 00 00 00 00       	mov    $0x0,%eax
  401a69:	e8 34 fe ff ff       	callq  4018a2 <getbuf>
  401a6e:	89 c2                	mov    %eax,%edx
  401a70:	be 48 32 40 00       	mov    $0x403248,%esi
  401a75:	bf 01 00 00 00       	mov    $0x1,%edi
  401a7a:	b8 00 00 00 00       	mov    $0x0,%eax
  401a7f:	e8 9c f3 ff ff       	callq  400e20 <__printf_chk@plt>
  401a84:	48 83 c4 08          	add    $0x8,%rsp
  401a88:	c3                   	retq   
  401a89:	0f 1f 80 00 00 00 00 	nopl   0x0(%rax)

0000000000401a90 <save_char>:
  401a90:	8b 05 ae 36 20 00    	mov    0x2036ae(%rip),%eax        # 605144 <gets_cnt>
  401a96:	3d ff 03 00 00       	cmp    $0x3ff,%eax
  401a9b:	7f 49                	jg     401ae6 <save_char+0x56>
  401a9d:	8d 14 40             	lea    (%rax,%rax,2),%edx
  401aa0:	89 f9                	mov    %edi,%ecx
  401aa2:	c0 e9 04             	shr    $0x4,%cl
  401aa5:	83 e1 0f             	and    $0xf,%ecx
  401aa8:	0f b6 b1 70 35 40 00 	movzbl 0x403570(%rcx),%esi
  401aaf:	48 63 ca             	movslq %edx,%rcx
  401ab2:	40 88 b1 40 45 60 00 	mov    %sil,0x604540(%rcx)
  401ab9:	8d 4a 01             	lea    0x1(%rdx),%ecx
  401abc:	83 e7 0f             	and    $0xf,%edi
  401abf:	0f b6 b7 70 35 40 00 	movzbl 0x403570(%rdi),%esi
  401ac6:	48 63 c9             	movslq %ecx,%rcx
  401ac9:	40 88 b1 40 45 60 00 	mov    %sil,0x604540(%rcx)
  401ad0:	83 c2 02             	add    $0x2,%edx
  401ad3:	48 63 d2             	movslq %edx,%rdx
  401ad6:	c6 82 40 45 60 00 20 	movb   $0x20,0x604540(%rdx)
  401add:	83 c0 01             	add    $0x1,%eax
  401ae0:	89 05 5e 36 20 00    	mov    %eax,0x20365e(%rip)        # 605144 <gets_cnt>
  401ae6:	f3 c3                	repz retq 

0000000000401ae8 <save_term>:
  401ae8:	8b 05 56 36 20 00    	mov    0x203656(%rip),%eax        # 605144 <gets_cnt>
  401aee:	8d 04 40             	lea    (%rax,%rax,2),%eax
  401af1:	48 98                	cltq   
  401af3:	c6 80 40 45 60 00 00 	movb   $0x0,0x604540(%rax)
  401afa:	c3                   	retq   

0000000000401afb <check_fail>:
  401afb:	48 83 ec 08          	sub    $0x8,%rsp
  401aff:	0f be 15 42 36 20 00 	movsbl 0x203642(%rip),%edx        # 605148 <target_prefix>
  401b06:	41 b8 40 45 60 00    	mov    $0x604540,%r8d
  401b0c:	8b 0d 06 2a 20 00    	mov    0x202a06(%rip),%ecx        # 604518 <check_level>
  401b12:	be 6b 32 40 00       	mov    $0x40326b,%esi
  401b17:	bf 01 00 00 00       	mov    $0x1,%edi
  401b1c:	b8 00 00 00 00       	mov    $0x0,%eax
  401b21:	e8 fa f2 ff ff       	callq  400e20 <__printf_chk@plt>
  401b26:	bf 01 00 00 00       	mov    $0x1,%edi
  401b2b:	e8 40 f3 ff ff       	callq  400e70 <exit@plt>

0000000000401b30 <Gets>:
  401b30:	41 54                	push   %r12
  401b32:	55                   	push   %rbp
  401b33:	53                   	push   %rbx
  401b34:	49 89 fc             	mov    %rdi,%r12
  401b37:	c7 05 03 36 20 00 00 	movl   $0x0,0x203603(%rip)        # 605144 <gets_cnt>
  401b3e:	00 00 00 
  401b41:	48 89 fb             	mov    %rdi,%rbx
  401b44:	eb 11                	jmp    401b57 <Gets+0x27>
  401b46:	48 8d 6b 01          	lea    0x1(%rbx),%rbp
  401b4a:	88 03                	mov    %al,(%rbx)
  401b4c:	0f b6 f8             	movzbl %al,%edi
  401b4f:	e8 3c ff ff ff       	callq  401a90 <save_char>
  401b54:	48 89 eb             	mov    %rbp,%rbx
  401b57:	48 8b 3d b2 29 20 00 	mov    0x2029b2(%rip),%rdi        # 604510 <infile>
  401b5e:	e8 8d f2 ff ff       	callq  400df0 <_IO_getc@plt>
  401b63:	83 f8 ff             	cmp    $0xffffffff,%eax
  401b66:	74 05                	je     401b6d <Gets+0x3d>
  401b68:	83 f8 0a             	cmp    $0xa,%eax
  401b6b:	75 d9                	jne    401b46 <Gets+0x16>
  401b6d:	c6 03 00             	movb   $0x0,(%rbx)
  401b70:	b8 00 00 00 00       	mov    $0x0,%eax
  401b75:	e8 6e ff ff ff       	callq  401ae8 <save_term>
  401b7a:	4c 89 e0             	mov    %r12,%rax
  401b7d:	5b                   	pop    %rbx
  401b7e:	5d                   	pop    %rbp
  401b7f:	41 5c                	pop    %r12
  401b81:	c3                   	retq   

0000000000401b82 <notify_server>:
  401b82:	53                   	push   %rbx
  401b83:	48 81 ec 30 40 00 00 	sub    $0x4030,%rsp
  401b8a:	64 48 8b 04 25 28 00 	mov    %fs:0x28,%rax
  401b91:	00 00 
  401b93:	48 89 84 24 28 40 00 	mov    %rax,0x4028(%rsp)
  401b9a:	00 
  401b9b:	31 c0                	xor    %eax,%eax
  401b9d:	83 3d 84 29 20 00 00 	cmpl   $0x0,0x202984(%rip)        # 604528 <is_checker>
  401ba4:	0f 85 bb 01 00 00    	jne    401d65 <notify_server+0x1e3>
  401baa:	89 fb                	mov    %edi,%ebx
  401bac:	8b 05 92 35 20 00    	mov    0x203592(%rip),%eax        # 605144 <gets_cnt>
  401bb2:	83 c0 64             	add    $0x64,%eax
  401bb5:	3d 00 20 00 00       	cmp    $0x2000,%eax
  401bba:	7e 1e                	jle    401bda <notify_server+0x58>
  401bbc:	be a0 33 40 00       	mov    $0x4033a0,%esi
  401bc1:	bf 01 00 00 00       	mov    $0x1,%edi
  401bc6:	b8 00 00 00 00       	mov    $0x0,%eax
  401bcb:	e8 50 f2 ff ff       	callq  400e20 <__printf_chk@plt>
  401bd0:	bf 01 00 00 00       	mov    $0x1,%edi
  401bd5:	e8 96 f2 ff ff       	callq  400e70 <exit@plt>
  401bda:	0f be 05 67 35 20 00 	movsbl 0x203567(%rip),%eax        # 605148 <target_prefix>
  401be1:	83 3d c0 28 20 00 00 	cmpl   $0x0,0x2028c0(%rip)        # 6044a8 <notify>
  401be8:	74 08                	je     401bf2 <notify_server+0x70>
  401bea:	8b 15 30 29 20 00    	mov    0x202930(%rip),%edx        # 604520 <authkey>
  401bf0:	eb 05                	jmp    401bf7 <notify_server+0x75>
  401bf2:	ba ff ff ff ff       	mov    $0xffffffff,%edx
  401bf7:	85 db                	test   %ebx,%ebx
  401bf9:	74 08                	je     401c03 <notify_server+0x81>
  401bfb:	41 b9 81 32 40 00    	mov    $0x403281,%r9d
  401c01:	eb 06                	jmp    401c09 <notify_server+0x87>
  401c03:	41 b9 86 32 40 00    	mov    $0x403286,%r9d
  401c09:	48 c7 44 24 18 40 45 	movq   $0x604540,0x18(%rsp)
  401c10:	60 00 
  401c12:	89 74 24 10          	mov    %esi,0x10(%rsp)
  401c16:	89 44 24 08          	mov    %eax,0x8(%rsp)
  401c1a:	89 14 24             	mov    %edx,(%rsp)
  401c1d:	44 8b 05 44 25 20 00 	mov    0x202544(%rip),%r8d        # 604168 <target_id>
  401c24:	b9 8b 32 40 00       	mov    $0x40328b,%ecx
  401c29:	ba 00 20 00 00       	mov    $0x2000,%edx
  401c2e:	be 01 00 00 00       	mov    $0x1,%esi
  401c33:	48 8d 7c 24 20       	lea    0x20(%rsp),%rdi
  401c38:	b8 00 00 00 00       	mov    $0x0,%eax
  401c3d:	e8 5e f2 ff ff       	callq  400ea0 <__sprintf_chk@plt>
  401c42:	83 3d 5f 28 20 00 00 	cmpl   $0x0,0x20285f(%rip)        # 6044a8 <notify>
  401c49:	0f 84 86 00 00 00    	je     401cd5 <notify_server+0x153>
  401c4f:	85 db                	test   %ebx,%ebx
  401c51:	74 70                	je     401cc3 <notify_server+0x141>
  401c53:	4c 8d 8c 24 20 20 00 	lea    0x2020(%rsp),%r9
  401c5a:	00 
  401c5b:	41 b8 00 00 00 00    	mov    $0x0,%r8d
  401c61:	48 8d 4c 24 20       	lea    0x20(%rsp),%rcx
  401c66:	48 8b 15 03 25 20 00 	mov    0x202503(%rip),%rdx        # 604170 <lab>
  401c6d:	48 8b 35 04 25 20 00 	mov    0x202504(%rip),%rsi        # 604178 <course>
  401c74:	48 8b 3d e5 24 20 00 	mov    0x2024e5(%rip),%rdi        # 604160 <user_id>
  401c7b:	e8 be 10 00 00       	callq  402d3e <driver_post>
  401c80:	85 c0                	test   %eax,%eax
  401c82:	79 26                	jns    401caa <notify_server+0x128>
  401c84:	48 8d 94 24 20 20 00 	lea    0x2020(%rsp),%rdx
  401c8b:	00 
  401c8c:	be a7 32 40 00       	mov    $0x4032a7,%esi
  401c91:	bf 01 00 00 00       	mov    $0x1,%edi
  401c96:	b8 00 00 00 00       	mov    $0x0,%eax
  401c9b:	e8 80 f1 ff ff       	callq  400e20 <__printf_chk@plt>
  401ca0:	bf 01 00 00 00       	mov    $0x1,%edi
  401ca5:	e8 c6 f1 ff ff       	callq  400e70 <exit@plt>
  401caa:	bf d0 33 40 00       	mov    $0x4033d0,%edi
  401caf:	e8 2c f0 ff ff       	callq  400ce0 <puts@plt>
  401cb4:	bf b3 32 40 00       	mov    $0x4032b3,%edi
  401cb9:	e8 22 f0 ff ff       	callq  400ce0 <puts@plt>
  401cbe:	e9 a2 00 00 00       	jmpq   401d65 <notify_server+0x1e3>
  401cc3:	bf bd 32 40 00       	mov    $0x4032bd,%edi
  401cc8:	e8 13 f0 ff ff       	callq  400ce0 <puts@plt>
  401ccd:	0f 1f 00             	nopl   (%rax)
  401cd0:	e9 90 00 00 00       	jmpq   401d65 <notify_server+0x1e3>
  401cd5:	85 db                	test   %ebx,%ebx
  401cd7:	74 09                	je     401ce2 <notify_server+0x160>
  401cd9:	ba 81 32 40 00       	mov    $0x403281,%edx
  401cde:	66 90                	xchg   %ax,%ax
  401ce0:	eb 05                	jmp    401ce7 <notify_server+0x165>
  401ce2:	ba 86 32 40 00       	mov    $0x403286,%edx
  401ce7:	be 08 34 40 00       	mov    $0x403408,%esi
  401cec:	bf 01 00 00 00       	mov    $0x1,%edi
  401cf1:	b8 00 00 00 00       	mov    $0x0,%eax
  401cf6:	e8 25 f1 ff ff       	callq  400e20 <__printf_chk@plt>
  401cfb:	48 8b 15 5e 24 20 00 	mov    0x20245e(%rip),%rdx        # 604160 <user_id>
  401d02:	be c4 32 40 00       	mov    $0x4032c4,%esi
  401d07:	bf 01 00 00 00       	mov    $0x1,%edi
  401d0c:	b8 00 00 00 00       	mov    $0x0,%eax
  401d11:	e8 0a f1 ff ff       	callq  400e20 <__printf_chk@plt>
  401d16:	48 8b 15 5b 24 20 00 	mov    0x20245b(%rip),%rdx        # 604178 <course>
  401d1d:	be d1 32 40 00       	mov    $0x4032d1,%esi
  401d22:	bf 01 00 00 00       	mov    $0x1,%edi
  401d27:	b8 00 00 00 00       	mov    $0x0,%eax
  401d2c:	e8 ef f0 ff ff       	callq  400e20 <__printf_chk@plt>
  401d31:	48 8b 15 38 24 20 00 	mov    0x202438(%rip),%rdx        # 604170 <lab>
  401d38:	be dd 32 40 00       	mov    $0x4032dd,%esi
  401d3d:	bf 01 00 00 00       	mov    $0x1,%edi
  401d42:	b8 00 00 00 00       	mov    $0x0,%eax
  401d47:	e8 d4 f0 ff ff       	callq  400e20 <__printf_chk@plt>
  401d4c:	48 8d 54 24 20       	lea    0x20(%rsp),%rdx
  401d51:	be e6 32 40 00       	mov    $0x4032e6,%esi
  401d56:	bf 01 00 00 00       	mov    $0x1,%edi
  401d5b:	b8 00 00 00 00       	mov    $0x0,%eax
  401d60:	e8 bb f0 ff ff       	callq  400e20 <__printf_chk@plt>
  401d65:	48 8b 84 24 28 40 00 	mov    0x4028(%rsp),%rax
  401d6c:	00 
  401d6d:	64 48 33 04 25 28 00 	xor    %fs:0x28,%rax
  401d74:	00 00 
  401d76:	74 05                	je     401d7d <notify_server+0x1fb>
  401d78:	e8 83 ef ff ff       	callq  400d00 <__stack_chk_fail@plt>
  401d7d:	48 81 c4 30 40 00 00 	add    $0x4030,%rsp
  401d84:	5b                   	pop    %rbx
  401d85:	c3                   	retq   

0000000000401d86 <validate>:
  401d86:	53                   	push   %rbx
  401d87:	89 fb                	mov    %edi,%ebx
  401d89:	83 3d 98 27 20 00 00 	cmpl   $0x0,0x202798(%rip)        # 604528 <is_checker>
  401d90:	74 6b                	je     401dfd <validate+0x77>
  401d92:	39 3d 84 27 20 00    	cmp    %edi,0x202784(%rip)        # 60451c <vlevel>
  401d98:	74 14                	je     401dae <validate+0x28>
  401d9a:	bf f2 32 40 00       	mov    $0x4032f2,%edi
  401d9f:	e8 3c ef ff ff       	callq  400ce0 <puts@plt>
  401da4:	b8 00 00 00 00       	mov    $0x0,%eax
  401da9:	e8 4d fd ff ff       	callq  401afb <check_fail>
  401dae:	8b 15 64 27 20 00    	mov    0x202764(%rip),%edx        # 604518 <check_level>
  401db4:	39 fa                	cmp    %edi,%edx
  401db6:	74 20                	je     401dd8 <validate+0x52>
  401db8:	89 f9                	mov    %edi,%ecx
  401dba:	be 30 34 40 00       	mov    $0x403430,%esi
  401dbf:	bf 01 00 00 00       	mov    $0x1,%edi
  401dc4:	b8 00 00 00 00       	mov    $0x0,%eax
  401dc9:	e8 52 f0 ff ff       	callq  400e20 <__printf_chk@plt>
  401dce:	b8 00 00 00 00       	mov    $0x0,%eax
  401dd3:	e8 23 fd ff ff       	callq  401afb <check_fail>
  401dd8:	0f be 15 69 33 20 00 	movsbl 0x203369(%rip),%edx        # 605148 <target_prefix>
  401ddf:	41 b8 40 45 60 00    	mov    $0x604540,%r8d
  401de5:	89 f9                	mov    %edi,%ecx
  401de7:	be 10 33 40 00       	mov    $0x403310,%esi
  401dec:	bf 01 00 00 00       	mov    $0x1,%edi
  401df1:	b8 00 00 00 00       	mov    $0x0,%eax
  401df6:	e8 25 f0 ff ff       	callq  400e20 <__printf_chk@plt>
  401dfb:	eb 49                	jmp    401e46 <validate+0xc0>
  401dfd:	39 3d 19 27 20 00    	cmp    %edi,0x202719(%rip)        # 60451c <vlevel>
  401e03:	74 18                	je     401e1d <validate+0x97>
  401e05:	bf f2 32 40 00       	mov    $0x4032f2,%edi
  401e0a:	e8 d1 ee ff ff       	callq  400ce0 <puts@plt>
  401e0f:	89 de                	mov    %ebx,%esi
  401e11:	bf 00 00 00 00       	mov    $0x0,%edi
  401e16:	e8 67 fd ff ff       	callq  401b82 <notify_server>
  401e1b:	eb 29                	jmp    401e46 <validate+0xc0>
  401e1d:	0f be 0d 24 33 20 00 	movsbl 0x203324(%rip),%ecx        # 605148 <target_prefix>
  401e24:	89 fa                	mov    %edi,%edx
  401e26:	be 58 34 40 00       	mov    $0x403458,%esi
  401e2b:	bf 01 00 00 00       	mov    $0x1,%edi
  401e30:	b8 00 00 00 00       	mov    $0x0,%eax
  401e35:	e8 e6 ef ff ff       	callq  400e20 <__printf_chk@plt>
  401e3a:	89 de                	mov    %ebx,%esi
  401e3c:	bf 01 00 00 00       	mov    $0x1,%edi
  401e41:	e8 3c fd ff ff       	callq  401b82 <notify_server>
  401e46:	5b                   	pop    %rbx
  401e47:	c3                   	retq   

0000000000401e48 <fail>:
  401e48:	48 83 ec 08          	sub    $0x8,%rsp
  401e4c:	83 3d d5 26 20 00 00 	cmpl   $0x0,0x2026d5(%rip)        # 604528 <is_checker>
  401e53:	74 0a                	je     401e5f <fail+0x17>
  401e55:	b8 00 00 00 00       	mov    $0x0,%eax
  401e5a:	e8 9c fc ff ff       	callq  401afb <check_fail>
  401e5f:	89 fe                	mov    %edi,%esi
  401e61:	bf 00 00 00 00       	mov    $0x0,%edi
  401e66:	e8 17 fd ff ff       	callq  401b82 <notify_server>
  401e6b:	48 83 c4 08          	add    $0x8,%rsp
  401e6f:	c3                   	retq   

0000000000401e70 <bushandler>:
  401e70:	48 83 ec 08          	sub    $0x8,%rsp
  401e74:	83 3d ad 26 20 00 00 	cmpl   $0x0,0x2026ad(%rip)        # 604528 <is_checker>
  401e7b:	74 14                	je     401e91 <bushandler+0x21>
  401e7d:	bf 25 33 40 00       	mov    $0x403325,%edi
  401e82:	e8 59 ee ff ff       	callq  400ce0 <puts@plt>
  401e87:	b8 00 00 00 00       	mov    $0x0,%eax
  401e8c:	e8 6a fc ff ff       	callq  401afb <check_fail>
  401e91:	bf 90 34 40 00       	mov    $0x403490,%edi
  401e96:	e8 45 ee ff ff       	callq  400ce0 <puts@plt>
  401e9b:	bf 2f 33 40 00       	mov    $0x40332f,%edi
  401ea0:	e8 3b ee ff ff       	callq  400ce0 <puts@plt>
  401ea5:	be 00 00 00 00       	mov    $0x0,%esi
  401eaa:	bf 00 00 00 00       	mov    $0x0,%edi
  401eaf:	e8 ce fc ff ff       	callq  401b82 <notify_server>
  401eb4:	bf 01 00 00 00       	mov    $0x1,%edi
  401eb9:	e8 b2 ef ff ff       	callq  400e70 <exit@plt>

0000000000401ebe <seghandler>:
  401ebe:	48 83 ec 08          	sub    $0x8,%rsp
  401ec2:	83 3d 5f 26 20 00 00 	cmpl   $0x0,0x20265f(%rip)        # 604528 <is_checker>
  401ec9:	74 14                	je     401edf <seghandler+0x21>
  401ecb:	bf 45 33 40 00       	mov    $0x403345,%edi
  401ed0:	e8 0b ee ff ff       	callq  400ce0 <puts@plt>
  401ed5:	b8 00 00 00 00       	mov    $0x0,%eax
  401eda:	e8 1c fc ff ff       	callq  401afb <check_fail>
  401edf:	bf b0 34 40 00       	mov    $0x4034b0,%edi
  401ee4:	e8 f7 ed ff ff       	callq  400ce0 <puts@plt>
  401ee9:	bf 2f 33 40 00       	mov    $0x40332f,%edi
  401eee:	e8 ed ed ff ff       	callq  400ce0 <puts@plt>
  401ef3:	be 00 00 00 00       	mov    $0x0,%esi
  401ef8:	bf 00 00 00 00       	mov    $0x0,%edi
  401efd:	e8 80 fc ff ff       	callq  401b82 <notify_server>
  401f02:	bf 01 00 00 00       	mov    $0x1,%edi
  401f07:	e8 64 ef ff ff       	callq  400e70 <exit@plt>

0000000000401f0c <illegalhandler>:
  401f0c:	48 83 ec 08          	sub    $0x8,%rsp
  401f10:	83 3d 11 26 20 00 00 	cmpl   $0x0,0x202611(%rip)        # 604528 <is_checker>
  401f17:	74 14                	je     401f2d <illegalhandler+0x21>
  401f19:	bf 58 33 40 00       	mov    $0x403358,%edi
  401f1e:	e8 bd ed ff ff       	callq  400ce0 <puts@plt>
  401f23:	b8 00 00 00 00       	mov    $0x0,%eax
  401f28:	e8 ce fb ff ff       	callq  401afb <check_fail>
  401f2d:	bf d8 34 40 00       	mov    $0x4034d8,%edi
  401f32:	e8 a9 ed ff ff       	callq  400ce0 <puts@plt>
  401f37:	bf 2f 33 40 00       	mov    $0x40332f,%edi
  401f3c:	e8 9f ed ff ff       	callq  400ce0 <puts@plt>
  401f41:	be 00 00 00 00       	mov    $0x0,%esi
  401f46:	bf 00 00 00 00       	mov    $0x0,%edi
  401f4b:	e8 32 fc ff ff       	callq  401b82 <notify_server>
  401f50:	bf 01 00 00 00       	mov    $0x1,%edi
  401f55:	e8 16 ef ff ff       	callq  400e70 <exit@plt>

0000000000401f5a <sigalrmhandler>:
  401f5a:	48 83 ec 08          	sub    $0x8,%rsp
  401f5e:	83 3d c3 25 20 00 00 	cmpl   $0x0,0x2025c3(%rip)        # 604528 <is_checker>
  401f65:	74 14                	je     401f7b <sigalrmhandler+0x21>
  401f67:	bf 6c 33 40 00       	mov    $0x40336c,%edi
  401f6c:	e8 6f ed ff ff       	callq  400ce0 <puts@plt>
  401f71:	b8 00 00 00 00       	mov    $0x0,%eax
  401f76:	e8 80 fb ff ff       	callq  401afb <check_fail>
  401f7b:	ba 05 00 00 00       	mov    $0x5,%edx
  401f80:	be 08 35 40 00       	mov    $0x403508,%esi
  401f85:	bf 01 00 00 00       	mov    $0x1,%edi
  401f8a:	b8 00 00 00 00       	mov    $0x0,%eax
  401f8f:	e8 8c ee ff ff       	callq  400e20 <__printf_chk@plt>
  401f94:	be 00 00 00 00       	mov    $0x0,%esi
  401f99:	bf 00 00 00 00       	mov    $0x0,%edi
  401f9e:	e8 df fb ff ff       	callq  401b82 <notify_server>
  401fa3:	bf 01 00 00 00       	mov    $0x1,%edi
  401fa8:	e8 c3 ee ff ff       	callq  400e70 <exit@plt>

0000000000401fad <launch>:
  401fad:	55                   	push   %rbp
  401fae:	48 89 e5             	mov    %rsp,%rbp
  401fb1:	48 83 ec 10          	sub    $0x10,%rsp
  401fb5:	48 89 fa             	mov    %rdi,%rdx
  401fb8:	64 48 8b 04 25 28 00 	mov    %fs:0x28,%rax
  401fbf:	00 00 
  401fc1:	48 89 45 f8          	mov    %rax,-0x8(%rbp)
  401fc5:	31 c0                	xor    %eax,%eax
  401fc7:	48 8d 47 1e          	lea    0x1e(%rdi),%rax
  401fcb:	48 83 e0 f0          	and    $0xfffffffffffffff0,%rax
  401fcf:	48 29 c4             	sub    %rax,%rsp
  401fd2:	48 8d 7c 24 0f       	lea    0xf(%rsp),%rdi
  401fd7:	48 83 e7 f0          	and    $0xfffffffffffffff0,%rdi
  401fdb:	be f4 00 00 00       	mov    $0xf4,%esi
  401fe0:	e8 3b ed ff ff       	callq  400d20 <memset@plt>
  401fe5:	48 8b 05 d4 24 20 00 	mov    0x2024d4(%rip),%rax        # 6044c0 <stdin@@GLIBC_2.2.5>
  401fec:	48 39 05 1d 25 20 00 	cmp    %rax,0x20251d(%rip)        # 604510 <infile>
  401ff3:	75 14                	jne    402009 <launch+0x5c>
  401ff5:	be 74 33 40 00       	mov    $0x403374,%esi
  401ffa:	bf 01 00 00 00       	mov    $0x1,%edi
  401fff:	b8 00 00 00 00       	mov    $0x0,%eax
  402004:	e8 17 ee ff ff       	callq  400e20 <__printf_chk@plt>
  402009:	c7 05 09 25 20 00 00 	movl   $0x0,0x202509(%rip)        # 60451c <vlevel>
  402010:	00 00 00 
  402013:	b8 00 00 00 00       	mov    $0x0,%eax
  402018:	e8 43 fa ff ff       	callq  401a60 <test>
  40201d:	83 3d 04 25 20 00 00 	cmpl   $0x0,0x202504(%rip)        # 604528 <is_checker>
  402024:	74 14                	je     40203a <launch+0x8d>
  402026:	bf 81 33 40 00       	mov    $0x403381,%edi
  40202b:	e8 b0 ec ff ff       	callq  400ce0 <puts@plt>
  402030:	b8 00 00 00 00       	mov    $0x0,%eax
  402035:	e8 c1 fa ff ff       	callq  401afb <check_fail>
  40203a:	bf 8c 33 40 00       	mov    $0x40338c,%edi
  40203f:	e8 9c ec ff ff       	callq  400ce0 <puts@plt>
  402044:	48 8b 45 f8          	mov    -0x8(%rbp),%rax
  402048:	64 48 33 04 25 28 00 	xor    %fs:0x28,%rax
  40204f:	00 00 
  402051:	74 05                	je     402058 <launch+0xab>
  402053:	e8 a8 ec ff ff       	callq  400d00 <__stack_chk_fail@plt>
  402058:	c9                   	leaveq 
  402059:	c3                   	retq   

000000000040205a <stable_launch>:
  40205a:	53                   	push   %rbx
  40205b:	48 89 3d a6 24 20 00 	mov    %rdi,0x2024a6(%rip)        # 604508 <global_offset>
  402062:	41 b9 00 00 00 00    	mov    $0x0,%r9d
  402068:	41 b8 00 00 00 00    	mov    $0x0,%r8d
  40206e:	b9 32 01 00 00       	mov    $0x132,%ecx
  402073:	ba 07 00 00 00       	mov    $0x7,%edx
  402078:	be 00 00 10 00       	mov    $0x100000,%esi
  40207d:	bf 00 60 58 55       	mov    $0x55586000,%edi
  402082:	e8 89 ec ff ff       	callq  400d10 <mmap@plt>
  402087:	48 89 c3             	mov    %rax,%rbx
  40208a:	48 3d 00 60 58 55    	cmp    $0x55586000,%rax
  402090:	74 37                	je     4020c9 <stable_launch+0x6f>
  402092:	be 00 00 10 00       	mov    $0x100000,%esi
  402097:	48 89 c7             	mov    %rax,%rdi
  40209a:	e8 71 ed ff ff       	callq  400e10 <munmap@plt>
  40209f:	b9 00 60 58 55       	mov    $0x55586000,%ecx
  4020a4:	ba 40 35 40 00       	mov    $0x403540,%edx
  4020a9:	be 01 00 00 00       	mov    $0x1,%esi
  4020ae:	48 8b 3d 33 24 20 00 	mov    0x202433(%rip),%rdi        # 6044e8 <stderr@@GLIBC_2.2.5>
  4020b5:	b8 00 00 00 00       	mov    $0x0,%eax
  4020ba:	e8 d1 ed ff ff       	callq  400e90 <__fprintf_chk@plt>
  4020bf:	bf 01 00 00 00       	mov    $0x1,%edi
  4020c4:	e8 a7 ed ff ff       	callq  400e70 <exit@plt>
  4020c9:	48 8d 90 f8 ff 0f 00 	lea    0xffff8(%rax),%rdx
  4020d0:	48 89 15 79 30 20 00 	mov    %rdx,0x203079(%rip)        # 605150 <stack_top>
  4020d7:	48 89 e0             	mov    %rsp,%rax
  4020da:	48 89 d4             	mov    %rdx,%rsp
  4020dd:	48 89 c2             	mov    %rax,%rdx
  4020e0:	48 89 15 19 24 20 00 	mov    %rdx,0x202419(%rip)        # 604500 <global_save_stack>
  4020e7:	48 8b 3d 1a 24 20 00 	mov    0x20241a(%rip),%rdi        # 604508 <global_offset>
  4020ee:	e8 ba fe ff ff       	callq  401fad <launch>
  4020f3:	48 8b 05 06 24 20 00 	mov    0x202406(%rip),%rax        # 604500 <global_save_stack>
  4020fa:	48 89 c4             	mov    %rax,%rsp
  4020fd:	be 00 00 10 00       	mov    $0x100000,%esi
  402102:	48 89 df             	mov    %rbx,%rdi
  402105:	e8 06 ed ff ff       	callq  400e10 <munmap@plt>
  40210a:	5b                   	pop    %rbx
  40210b:	c3                   	retq   
  40210c:	0f 1f 40 00          	nopl   0x0(%rax)

0000000000402110 <rio_readinitb>:
  402110:	89 37                	mov    %esi,(%rdi)
  402112:	c7 47 04 00 00 00 00 	movl   $0x0,0x4(%rdi)
  402119:	48 8d 47 10          	lea    0x10(%rdi),%rax
  40211d:	48 89 47 08          	mov    %rax,0x8(%rdi)
  402121:	c3                   	retq   

0000000000402122 <sigalrm_handler>:
  402122:	48 83 ec 08          	sub    $0x8,%rsp
  402126:	b9 00 00 00 00       	mov    $0x0,%ecx
  40212b:	ba 80 35 40 00       	mov    $0x403580,%edx
  402130:	be 01 00 00 00       	mov    $0x1,%esi
  402135:	48 8b 3d ac 23 20 00 	mov    0x2023ac(%rip),%rdi        # 6044e8 <stderr@@GLIBC_2.2.5>
  40213c:	b8 00 00 00 00       	mov    $0x0,%eax
  402141:	e8 4a ed ff ff       	callq  400e90 <__fprintf_chk@plt>
  402146:	bf 01 00 00 00       	mov    $0x1,%edi
  40214b:	e8 20 ed ff ff       	callq  400e70 <exit@plt>

0000000000402150 <rio_writen>:
  402150:	41 55                	push   %r13
  402152:	41 54                	push   %r12
  402154:	55                   	push   %rbp
  402155:	53                   	push   %rbx
  402156:	48 83 ec 08          	sub    $0x8,%rsp
  40215a:	41 89 fc             	mov    %edi,%r12d
  40215d:	48 89 f5             	mov    %rsi,%rbp
  402160:	49 89 d5             	mov    %rdx,%r13
  402163:	48 89 d3             	mov    %rdx,%rbx
  402166:	eb 28                	jmp    402190 <rio_writen+0x40>
  402168:	48 89 da             	mov    %rbx,%rdx
  40216b:	48 89 ee             	mov    %rbp,%rsi
  40216e:	44 89 e7             	mov    %r12d,%edi
  402171:	e8 7a eb ff ff       	callq  400cf0 <write@plt>
  402176:	48 85 c0             	test   %rax,%rax
  402179:	7f 0f                	jg     40218a <rio_writen+0x3a>
  40217b:	e8 20 eb ff ff       	callq  400ca0 <__errno_location@plt>
  402180:	83 38 04             	cmpl   $0x4,(%rax)
  402183:	75 15                	jne    40219a <rio_writen+0x4a>
  402185:	b8 00 00 00 00       	mov    $0x0,%eax
  40218a:	48 29 c3             	sub    %rax,%rbx
  40218d:	48 01 c5             	add    %rax,%rbp
  402190:	48 85 db             	test   %rbx,%rbx
  402193:	75 d3                	jne    402168 <rio_writen+0x18>
  402195:	4c 89 e8             	mov    %r13,%rax
  402198:	eb 07                	jmp    4021a1 <rio_writen+0x51>
  40219a:	48 c7 c0 ff ff ff ff 	mov    $0xffffffffffffffff,%rax
  4021a1:	48 83 c4 08          	add    $0x8,%rsp
  4021a5:	5b                   	pop    %rbx
  4021a6:	5d                   	pop    %rbp
  4021a7:	41 5c                	pop    %r12
  4021a9:	41 5d                	pop    %r13
  4021ab:	c3                   	retq   

00000000004021ac <rio_read>:
  4021ac:	41 56                	push   %r14
  4021ae:	41 55                	push   %r13
  4021b0:	41 54                	push   %r12
  4021b2:	55                   	push   %rbp
  4021b3:	53                   	push   %rbx
  4021b4:	48 89 fb             	mov    %rdi,%rbx
  4021b7:	49 89 f6             	mov    %rsi,%r14
  4021ba:	49 89 d5             	mov    %rdx,%r13
  4021bd:	4c 8d 67 10          	lea    0x10(%rdi),%r12
  4021c1:	eb 2a                	jmp    4021ed <rio_read+0x41>
  4021c3:	8b 3b                	mov    (%rbx),%edi
  4021c5:	ba 00 20 00 00       	mov    $0x2000,%edx
  4021ca:	4c 89 e6             	mov    %r12,%rsi
  4021cd:	e8 7e eb ff ff       	callq  400d50 <read@plt>
  4021d2:	89 43 04             	mov    %eax,0x4(%rbx)
  4021d5:	85 c0                	test   %eax,%eax
  4021d7:	79 0c                	jns    4021e5 <rio_read+0x39>
  4021d9:	e8 c2 ea ff ff       	callq  400ca0 <__errno_location@plt>
  4021de:	83 38 04             	cmpl   $0x4,(%rax)
  4021e1:	74 0a                	je     4021ed <rio_read+0x41>
  4021e3:	eb 37                	jmp    40221c <rio_read+0x70>
  4021e5:	85 c0                	test   %eax,%eax
  4021e7:	74 3c                	je     402225 <rio_read+0x79>
  4021e9:	4c 89 63 08          	mov    %r12,0x8(%rbx)
  4021ed:	8b 6b 04             	mov    0x4(%rbx),%ebp
  4021f0:	85 ed                	test   %ebp,%ebp
  4021f2:	7e cf                	jle    4021c3 <rio_read+0x17>
  4021f4:	89 e8                	mov    %ebp,%eax
  4021f6:	4c 39 e8             	cmp    %r13,%rax
  4021f9:	72 03                	jb     4021fe <rio_read+0x52>
  4021fb:	44 89 ed             	mov    %r13d,%ebp
  4021fe:	4c 63 e5             	movslq %ebp,%r12
  402201:	48 8b 73 08          	mov    0x8(%rbx),%rsi
  402205:	4c 89 e2             	mov    %r12,%rdx
  402208:	4c 89 f7             	mov    %r14,%rdi
  40220b:	e8 b0 eb ff ff       	callq  400dc0 <memcpy@plt>
  402210:	4c 01 63 08          	add    %r12,0x8(%rbx)
  402214:	29 6b 04             	sub    %ebp,0x4(%rbx)
  402217:	4c 89 e0             	mov    %r12,%rax
  40221a:	eb 0e                	jmp    40222a <rio_read+0x7e>
  40221c:	48 c7 c0 ff ff ff ff 	mov    $0xffffffffffffffff,%rax
  402223:	eb 05                	jmp    40222a <rio_read+0x7e>
  402225:	b8 00 00 00 00       	mov    $0x0,%eax
  40222a:	5b                   	pop    %rbx
  40222b:	5d                   	pop    %rbp
  40222c:	41 5c                	pop    %r12
  40222e:	41 5d                	pop    %r13
  402230:	41 5e                	pop    %r14
  402232:	c3                   	retq   

0000000000402233 <rio_readlineb>:
  402233:	41 55                	push   %r13
  402235:	41 54                	push   %r12
  402237:	55                   	push   %rbp
  402238:	53                   	push   %rbx
  402239:	48 83 ec 18          	sub    $0x18,%rsp
  40223d:	49 89 fd             	mov    %rdi,%r13
  402240:	48 89 f5             	mov    %rsi,%rbp
  402243:	49 89 d4             	mov    %rdx,%r12
  402246:	bb 01 00 00 00       	mov    $0x1,%ebx
  40224b:	eb 3e                	jmp    40228b <rio_readlineb+0x58>
  40224d:	ba 01 00 00 00       	mov    $0x1,%edx
  402252:	48 8d 74 24 0f       	lea    0xf(%rsp),%rsi
  402257:	4c 89 ef             	mov    %r13,%rdi
  40225a:	e8 4d ff ff ff       	callq  4021ac <rio_read>
  40225f:	83 f8 01             	cmp    $0x1,%eax
  402262:	75 12                	jne    402276 <rio_readlineb+0x43>
  402264:	48 8d 55 01          	lea    0x1(%rbp),%rdx
  402268:	0f b6 44 24 0f       	movzbl 0xf(%rsp),%eax
  40226d:	88 45 00             	mov    %al,0x0(%rbp)
  402270:	3c 0a                	cmp    $0xa,%al
  402272:	75 10                	jne    402284 <rio_readlineb+0x51>
  402274:	eb 1c                	jmp    402292 <rio_readlineb+0x5f>
  402276:	85 c0                	test   %eax,%eax
  402278:	75 24                	jne    40229e <rio_readlineb+0x6b>
  40227a:	48 83 fb 01          	cmp    $0x1,%rbx
  40227e:	66 90                	xchg   %ax,%ax
  402280:	75 13                	jne    402295 <rio_readlineb+0x62>
  402282:	eb 23                	jmp    4022a7 <rio_readlineb+0x74>
  402284:	48 83 c3 01          	add    $0x1,%rbx
  402288:	48 89 d5             	mov    %rdx,%rbp
  40228b:	4c 39 e3             	cmp    %r12,%rbx
  40228e:	72 bd                	jb     40224d <rio_readlineb+0x1a>
  402290:	eb 03                	jmp    402295 <rio_readlineb+0x62>
  402292:	48 89 d5             	mov    %rdx,%rbp
  402295:	c6 45 00 00          	movb   $0x0,0x0(%rbp)
  402299:	48 89 d8             	mov    %rbx,%rax
  40229c:	eb 0e                	jmp    4022ac <rio_readlineb+0x79>
  40229e:	48 c7 c0 ff ff ff ff 	mov    $0xffffffffffffffff,%rax
  4022a5:	eb 05                	jmp    4022ac <rio_readlineb+0x79>
  4022a7:	b8 00 00 00 00       	mov    $0x0,%eax
  4022ac:	48 83 c4 18          	add    $0x18,%rsp
  4022b0:	5b                   	pop    %rbx
  4022b1:	5d                   	pop    %rbp
  4022b2:	41 5c                	pop    %r12
  4022b4:	41 5d                	pop    %r13
  4022b6:	c3                   	retq   

00000000004022b7 <urlencode>:
  4022b7:	41 54                	push   %r12
  4022b9:	55                   	push   %rbp
  4022ba:	53                   	push   %rbx
  4022bb:	48 83 ec 10          	sub    $0x10,%rsp
  4022bf:	48 89 fb             	mov    %rdi,%rbx
  4022c2:	48 89 f5             	mov    %rsi,%rbp
  4022c5:	64 48 8b 04 25 28 00 	mov    %fs:0x28,%rax
  4022cc:	00 00 
  4022ce:	48 89 44 24 08       	mov    %rax,0x8(%rsp)
  4022d3:	31 c0                	xor    %eax,%eax
  4022d5:	48 c7 c1 ff ff ff ff 	mov    $0xffffffffffffffff,%rcx
  4022dc:	f2 ae                	repnz scas %es:(%rdi),%al
  4022de:	48 f7 d1             	not    %rcx
  4022e1:	8d 41 ff             	lea    -0x1(%rcx),%eax
  4022e4:	e9 aa 00 00 00       	jmpq   402393 <urlencode+0xdc>
  4022e9:	44 0f b6 03          	movzbl (%rbx),%r8d
  4022ed:	41 80 f8 2a          	cmp    $0x2a,%r8b
  4022f1:	0f 94 c2             	sete   %dl
  4022f4:	41 80 f8 2d          	cmp    $0x2d,%r8b
  4022f8:	0f 94 c0             	sete   %al
  4022fb:	08 c2                	or     %al,%dl
  4022fd:	75 24                	jne    402323 <urlencode+0x6c>
  4022ff:	41 80 f8 2e          	cmp    $0x2e,%r8b
  402303:	74 1e                	je     402323 <urlencode+0x6c>
  402305:	41 80 f8 5f          	cmp    $0x5f,%r8b
  402309:	74 18                	je     402323 <urlencode+0x6c>
  40230b:	41 8d 40 d0          	lea    -0x30(%r8),%eax
  40230f:	3c 09                	cmp    $0x9,%al
  402311:	76 10                	jbe    402323 <urlencode+0x6c>
  402313:	41 8d 40 bf          	lea    -0x41(%r8),%eax
  402317:	3c 19                	cmp    $0x19,%al
  402319:	76 08                	jbe    402323 <urlencode+0x6c>
  40231b:	41 8d 40 9f          	lea    -0x61(%r8),%eax
  40231f:	3c 19                	cmp    $0x19,%al
  402321:	77 0a                	ja     40232d <urlencode+0x76>
  402323:	44 88 45 00          	mov    %r8b,0x0(%rbp)
  402327:	48 8d 6d 01          	lea    0x1(%rbp),%rbp
  40232b:	eb 5f                	jmp    40238c <urlencode+0xd5>
  40232d:	41 80 f8 20          	cmp    $0x20,%r8b
  402331:	75 0a                	jne    40233d <urlencode+0x86>
  402333:	c6 45 00 2b          	movb   $0x2b,0x0(%rbp)
  402337:	48 8d 6d 01          	lea    0x1(%rbp),%rbp
  40233b:	eb 4f                	jmp    40238c <urlencode+0xd5>
  40233d:	41 8d 40 e0          	lea    -0x20(%r8),%eax
  402341:	3c 5f                	cmp    $0x5f,%al
  402343:	0f 96 c2             	setbe  %dl
  402346:	41 80 f8 09          	cmp    $0x9,%r8b
  40234a:	0f 94 c0             	sete   %al
  40234d:	08 c2                	or     %al,%dl
  40234f:	74 50                	je     4023a1 <urlencode+0xea>
  402351:	45 0f b6 c0          	movzbl %r8b,%r8d
  402355:	b9 18 36 40 00       	mov    $0x403618,%ecx
  40235a:	ba 08 00 00 00       	mov    $0x8,%edx
  40235f:	be 01 00 00 00       	mov    $0x1,%esi
  402364:	48 89 e7             	mov    %rsp,%rdi
  402367:	b8 00 00 00 00       	mov    $0x0,%eax
  40236c:	e8 2f eb ff ff       	callq  400ea0 <__sprintf_chk@plt>
  402371:	0f b6 04 24          	movzbl (%rsp),%eax
  402375:	88 45 00             	mov    %al,0x0(%rbp)
  402378:	0f b6 44 24 01       	movzbl 0x1(%rsp),%eax
  40237d:	88 45 01             	mov    %al,0x1(%rbp)
  402380:	0f b6 44 24 02       	movzbl 0x2(%rsp),%eax
  402385:	88 45 02             	mov    %al,0x2(%rbp)
  402388:	48 8d 6d 03          	lea    0x3(%rbp),%rbp
  40238c:	48 83 c3 01          	add    $0x1,%rbx
  402390:	44 89 e0             	mov    %r12d,%eax
  402393:	44 8d 60 ff          	lea    -0x1(%rax),%r12d
  402397:	85 c0                	test   %eax,%eax
  402399:	0f 85 4a ff ff ff    	jne    4022e9 <urlencode+0x32>
  40239f:	eb 05                	jmp    4023a6 <urlencode+0xef>
  4023a1:	b8 ff ff ff ff       	mov    $0xffffffff,%eax
  4023a6:	48 8b 74 24 08       	mov    0x8(%rsp),%rsi
  4023ab:	64 48 33 34 25 28 00 	xor    %fs:0x28,%rsi
  4023b2:	00 00 
  4023b4:	74 05                	je     4023bb <urlencode+0x104>
  4023b6:	e8 45 e9 ff ff       	callq  400d00 <__stack_chk_fail@plt>
  4023bb:	48 83 c4 10          	add    $0x10,%rsp
  4023bf:	5b                   	pop    %rbx
  4023c0:	5d                   	pop    %rbp
  4023c1:	41 5c                	pop    %r12
  4023c3:	c3                   	retq   

00000000004023c4 <submitr>:
  4023c4:	41 57                	push   %r15
  4023c6:	41 56                	push   %r14
  4023c8:	41 55                	push   %r13
  4023ca:	41 54                	push   %r12
  4023cc:	55                   	push   %rbp
  4023cd:	53                   	push   %rbx
  4023ce:	48 81 ec 68 a0 00 00 	sub    $0xa068,%rsp
  4023d5:	49 89 fc             	mov    %rdi,%r12
  4023d8:	89 74 24 14          	mov    %esi,0x14(%rsp)
  4023dc:	49 89 d7             	mov    %rdx,%r15
  4023df:	49 89 ce             	mov    %rcx,%r14
  4023e2:	4c 89 44 24 18       	mov    %r8,0x18(%rsp)
  4023e7:	4d 89 cd             	mov    %r9,%r13
  4023ea:	48 8b 9c 24 a0 a0 00 	mov    0xa0a0(%rsp),%rbx
  4023f1:	00 
  4023f2:	64 48 8b 04 25 28 00 	mov    %fs:0x28,%rax
  4023f9:	00 00 
  4023fb:	48 89 84 24 58 a0 00 	mov    %rax,0xa058(%rsp)
  402402:	00 
  402403:	31 c0                	xor    %eax,%eax
  402405:	c7 44 24 2c 00 00 00 	movl   $0x0,0x2c(%rsp)
  40240c:	00 
  40240d:	ba 00 00 00 00       	mov    $0x0,%edx
  402412:	be 01 00 00 00       	mov    $0x1,%esi
  402417:	bf 02 00 00 00       	mov    $0x2,%edi
  40241c:	e8 8f ea ff ff       	callq  400eb0 <socket@plt>
  402421:	89 c5                	mov    %eax,%ebp
  402423:	85 c0                	test   %eax,%eax
  402425:	79 4e                	jns    402475 <submitr+0xb1>
  402427:	48 b8 45 72 72 6f 72 	movabs $0x43203a726f727245,%rax
  40242e:	3a 20 43 
  402431:	48 89 03             	mov    %rax,(%rbx)
  402434:	48 b8 6c 69 65 6e 74 	movabs $0x6e7520746e65696c,%rax
  40243b:	20 75 6e 
  40243e:	48 89 43 08          	mov    %rax,0x8(%rbx)
  402442:	48 b8 61 62 6c 65 20 	movabs $0x206f7420656c6261,%rax
  402449:	74 6f 20 
  40244c:	48 89 43 10          	mov    %rax,0x10(%rbx)
  402450:	48 b8 63 72 65 61 74 	movabs $0x7320657461657263,%rax
  402457:	65 20 73 
  40245a:	48 89 43 18          	mov    %rax,0x18(%rbx)
  40245e:	c7 43 20 6f 63 6b 65 	movl   $0x656b636f,0x20(%rbx)
  402465:	66 c7 43 24 74 00    	movw   $0x74,0x24(%rbx)
  40246b:	b8 ff ff ff ff       	mov    $0xffffffff,%eax
  402470:	e9 84 06 00 00       	jmpq   402af9 <submitr+0x735>
  402475:	4c 89 e7             	mov    %r12,%rdi
  402478:	e8 03 e9 ff ff       	callq  400d80 <gethostbyname@plt>
  40247d:	48 85 c0             	test   %rax,%rax
  402480:	75 67                	jne    4024e9 <submitr+0x125>
  402482:	48 b8 45 72 72 6f 72 	movabs $0x44203a726f727245,%rax
  402489:	3a 20 44 
  40248c:	48 89 03             	mov    %rax,(%rbx)
  40248f:	48 b8 4e 53 20 69 73 	movabs $0x6e7520736920534e,%rax
  402496:	20 75 6e 
  402499:	48 89 43 08          	mov    %rax,0x8(%rbx)
  40249d:	48 b8 61 62 6c 65 20 	movabs $0x206f7420656c6261,%rax
  4024a4:	74 6f 20 
  4024a7:	48 89 43 10          	mov    %rax,0x10(%rbx)
  4024ab:	48 b8 72 65 73 6f 6c 	movabs $0x2065766c6f736572,%rax
  4024b2:	76 65 20 
  4024b5:	48 89 43 18          	mov    %rax,0x18(%rbx)
  4024b9:	48 b8 73 65 72 76 65 	movabs $0x6120726576726573,%rax
  4024c0:	72 20 61 
  4024c3:	48 89 43 20          	mov    %rax,0x20(%rbx)
  4024c7:	c7 43 28 64 64 72 65 	movl   $0x65726464,0x28(%rbx)
  4024ce:	66 c7 43 2c 73 73    	movw   $0x7373,0x2c(%rbx)
  4024d4:	c6 43 2e 00          	movb   $0x0,0x2e(%rbx)
  4024d8:	89 ef                	mov    %ebp,%edi
  4024da:	e8 61 e8 ff ff       	callq  400d40 <close@plt>
  4024df:	b8 ff ff ff ff       	mov    $0xffffffff,%eax
  4024e4:	e9 10 06 00 00       	jmpq   402af9 <submitr+0x735>
  4024e9:	48 c7 44 24 30 00 00 	movq   $0x0,0x30(%rsp)
  4024f0:	00 00 
  4024f2:	48 c7 44 24 38 00 00 	movq   $0x0,0x38(%rsp)
  4024f9:	00 00 
  4024fb:	66 c7 44 24 30 02 00 	movw   $0x2,0x30(%rsp)
  402502:	48 63 50 14          	movslq 0x14(%rax),%rdx
  402506:	48 8b 40 18          	mov    0x18(%rax),%rax
  40250a:	48 8b 30             	mov    (%rax),%rsi
  40250d:	48 8d 7c 24 34       	lea    0x34(%rsp),%rdi
  402512:	b9 0c 00 00 00       	mov    $0xc,%ecx
  402517:	e8 74 e8 ff ff       	callq  400d90 <__memmove_chk@plt>
  40251c:	0f b7 44 24 14       	movzwl 0x14(%rsp),%eax
  402521:	66 c1 c8 08          	ror    $0x8,%ax
  402525:	66 89 44 24 32       	mov    %ax,0x32(%rsp)
  40252a:	ba 10 00 00 00       	mov    $0x10,%edx
  40252f:	48 8d 74 24 30       	lea    0x30(%rsp),%rsi
  402534:	89 ef                	mov    %ebp,%edi
  402536:	e8 45 e9 ff ff       	callq  400e80 <connect@plt>
  40253b:	85 c0                	test   %eax,%eax
  40253d:	79 59                	jns    402598 <submitr+0x1d4>
  40253f:	48 b8 45 72 72 6f 72 	movabs $0x55203a726f727245,%rax
  402546:	3a 20 55 
  402549:	48 89 03             	mov    %rax,(%rbx)
  40254c:	48 b8 6e 61 62 6c 65 	movabs $0x6f7420656c62616e,%rax
  402553:	20 74 6f 
  402556:	48 89 43 08          	mov    %rax,0x8(%rbx)
  40255a:	48 b8 20 63 6f 6e 6e 	movabs $0x7463656e6e6f6320,%rax
  402561:	65 63 74 
  402564:	48 89 43 10          	mov    %rax,0x10(%rbx)
  402568:	48 b8 20 74 6f 20 74 	movabs $0x20656874206f7420,%rax
  40256f:	68 65 20 
  402572:	48 89 43 18          	mov    %rax,0x18(%rbx)
  402576:	c7 43 20 73 65 72 76 	movl   $0x76726573,0x20(%rbx)
  40257d:	66 c7 43 24 65 72    	movw   $0x7265,0x24(%rbx)
  402583:	c6 43 26 00          	movb   $0x0,0x26(%rbx)
  402587:	89 ef                	mov    %ebp,%edi
  402589:	e8 b2 e7 ff ff       	callq  400d40 <close@plt>
  40258e:	b8 ff ff ff ff       	mov    $0xffffffff,%eax
  402593:	e9 61 05 00 00       	jmpq   402af9 <submitr+0x735>
  402598:	48 c7 c2 ff ff ff ff 	mov    $0xffffffffffffffff,%rdx
  40259f:	4c 89 ef             	mov    %r13,%rdi
  4025a2:	b8 00 00 00 00       	mov    $0x0,%eax
  4025a7:	48 89 d1             	mov    %rdx,%rcx
  4025aa:	f2 ae                	repnz scas %es:(%rdi),%al
  4025ac:	48 f7 d1             	not    %rcx
  4025af:	48 89 ce             	mov    %rcx,%rsi
  4025b2:	4c 89 ff             	mov    %r15,%rdi
  4025b5:	48 89 d1             	mov    %rdx,%rcx
  4025b8:	f2 ae                	repnz scas %es:(%rdi),%al
  4025ba:	48 f7 d1             	not    %rcx
  4025bd:	49 89 c8             	mov    %rcx,%r8
  4025c0:	4c 89 f7             	mov    %r14,%rdi
  4025c3:	48 89 d1             	mov    %rdx,%rcx
  4025c6:	f2 ae                	repnz scas %es:(%rdi),%al
  4025c8:	49 29 c8             	sub    %rcx,%r8
  4025cb:	48 8b 7c 24 18       	mov    0x18(%rsp),%rdi
  4025d0:	48 89 d1             	mov    %rdx,%rcx
  4025d3:	f2 ae                	repnz scas %es:(%rdi),%al
  4025d5:	49 29 c8             	sub    %rcx,%r8
  4025d8:	48 8d 44 76 fd       	lea    -0x3(%rsi,%rsi,2),%rax
  4025dd:	49 8d 44 00 7b       	lea    0x7b(%r8,%rax,1),%rax
  4025e2:	48 3d 00 20 00 00    	cmp    $0x2000,%rax
  4025e8:	76 72                	jbe    40265c <submitr+0x298>
  4025ea:	48 b8 45 72 72 6f 72 	movabs $0x52203a726f727245,%rax
  4025f1:	3a 20 52 
  4025f4:	48 89 03             	mov    %rax,(%rbx)
  4025f7:	48 b8 65 73 75 6c 74 	movabs $0x747320746c757365,%rax
  4025fe:	20 73 74 
  402601:	48 89 43 08          	mov    %rax,0x8(%rbx)
  402605:	48 b8 72 69 6e 67 20 	movabs $0x6f6f7420676e6972,%rax
  40260c:	74 6f 6f 
  40260f:	48 89 43 10          	mov    %rax,0x10(%rbx)
  402613:	48 b8 20 6c 61 72 67 	movabs $0x202e656772616c20,%rax
  40261a:	65 2e 20 
  40261d:	48 89 43 18          	mov    %rax,0x18(%rbx)
  402621:	48 b8 49 6e 63 72 65 	movabs $0x6573616572636e49,%rax
  402628:	61 73 65 
  40262b:	48 89 43 20          	mov    %rax,0x20(%rbx)
  40262f:	48 b8 20 53 55 42 4d 	movabs $0x5254494d42555320,%rax
  402636:	49 54 52 
  402639:	48 89 43 28          	mov    %rax,0x28(%rbx)
  40263d:	48 b8 5f 4d 41 58 42 	movabs $0x46554258414d5f,%rax
  402644:	55 46 00 
  402647:	48 89 43 30          	mov    %rax,0x30(%rbx)
  40264b:	89 ef                	mov    %ebp,%edi
  40264d:	e8 ee e6 ff ff       	callq  400d40 <close@plt>
  402652:	b8 ff ff ff ff       	mov    $0xffffffff,%eax
  402657:	e9 9d 04 00 00       	jmpq   402af9 <submitr+0x735>
  40265c:	48 8d b4 24 40 20 00 	lea    0x2040(%rsp),%rsi
  402663:	00 
  402664:	b9 00 04 00 00       	mov    $0x400,%ecx
  402669:	b8 00 00 00 00       	mov    $0x0,%eax
  40266e:	48 89 f7             	mov    %rsi,%rdi
  402671:	f3 48 ab             	rep stos %rax,%es:(%rdi)
  402674:	4c 89 ef             	mov    %r13,%rdi
  402677:	e8 3b fc ff ff       	callq  4022b7 <urlencode>
  40267c:	85 c0                	test   %eax,%eax
  40267e:	0f 89 8a 00 00 00    	jns    40270e <submitr+0x34a>
  402684:	48 b8 45 72 72 6f 72 	movabs $0x52203a726f727245,%rax
  40268b:	3a 20 52 
  40268e:	48 89 03             	mov    %rax,(%rbx)
  402691:	48 b8 65 73 75 6c 74 	movabs $0x747320746c757365,%rax
  402698:	20 73 74 
  40269b:	48 89 43 08          	mov    %rax,0x8(%rbx)
  40269f:	48 b8 72 69 6e 67 20 	movabs $0x6e6f6320676e6972,%rax
  4026a6:	63 6f 6e 
  4026a9:	48 89 43 10          	mov    %rax,0x10(%rbx)
  4026ad:	48 b8 74 61 69 6e 73 	movabs $0x6e6120736e696174,%rax
  4026b4:	20 61 6e 
  4026b7:	48 89 43 18          	mov    %rax,0x18(%rbx)
  4026bb:	48 b8 20 69 6c 6c 65 	movabs $0x6c6167656c6c6920,%rax
  4026c2:	67 61 6c 
  4026c5:	48 89 43 20          	mov    %rax,0x20(%rbx)
  4026c9:	48 b8 20 6f 72 20 75 	movabs $0x72706e7520726f20,%rax
  4026d0:	6e 70 72 
  4026d3:	48 89 43 28          	mov    %rax,0x28(%rbx)
  4026d7:	48 b8 69 6e 74 61 62 	movabs $0x20656c6261746e69,%rax
  4026de:	6c 65 20 
  4026e1:	48 89 43 30          	mov    %rax,0x30(%rbx)
  4026e5:	48 b8 63 68 61 72 61 	movabs $0x6574636172616863,%rax
  4026ec:	63 74 65 
  4026ef:	48 89 43 38          	mov    %rax,0x38(%rbx)
  4026f3:	66 c7 43 40 72 2e    	movw   $0x2e72,0x40(%rbx)
  4026f9:	c6 43 42 00          	movb   $0x0,0x42(%rbx)
  4026fd:	89 ef                	mov    %ebp,%edi
  4026ff:	e8 3c e6 ff ff       	callq  400d40 <close@plt>
  402704:	b8 ff ff ff ff       	mov    $0xffffffff,%eax
  402709:	e9 eb 03 00 00       	jmpq   402af9 <submitr+0x735>
  40270e:	4c 89 64 24 08       	mov    %r12,0x8(%rsp)
  402713:	48 8d 84 24 40 20 00 	lea    0x2040(%rsp),%rax
  40271a:	00 
  40271b:	48 89 04 24          	mov    %rax,(%rsp)
  40271f:	4d 89 f9             	mov    %r15,%r9
  402722:	4d 89 f0             	mov    %r14,%r8
  402725:	b9 a8 35 40 00       	mov    $0x4035a8,%ecx
  40272a:	ba 00 20 00 00       	mov    $0x2000,%edx
  40272f:	be 01 00 00 00       	mov    $0x1,%esi
  402734:	48 8d 7c 24 40       	lea    0x40(%rsp),%rdi
  402739:	b8 00 00 00 00       	mov    $0x0,%eax
  40273e:	e8 5d e7 ff ff       	callq  400ea0 <__sprintf_chk@plt>
  402743:	48 8d 7c 24 40       	lea    0x40(%rsp),%rdi
  402748:	b8 00 00 00 00       	mov    $0x0,%eax
  40274d:	48 c7 c1 ff ff ff ff 	mov    $0xffffffffffffffff,%rcx
  402754:	f2 ae                	repnz scas %es:(%rdi),%al
  402756:	48 f7 d1             	not    %rcx
  402759:	48 8d 51 ff          	lea    -0x1(%rcx),%rdx
  40275d:	48 8d 74 24 40       	lea    0x40(%rsp),%rsi
  402762:	89 ef                	mov    %ebp,%edi
  402764:	e8 e7 f9 ff ff       	callq  402150 <rio_writen>
  402769:	48 85 c0             	test   %rax,%rax
  40276c:	79 6e                	jns    4027dc <submitr+0x418>
  40276e:	48 b8 45 72 72 6f 72 	movabs $0x43203a726f727245,%rax
  402775:	3a 20 43 
  402778:	48 89 03             	mov    %rax,(%rbx)
  40277b:	48 b8 6c 69 65 6e 74 	movabs $0x6e7520746e65696c,%rax
  402782:	20 75 6e 
  402785:	48 89 43 08          	mov    %rax,0x8(%rbx)
  402789:	48 b8 61 62 6c 65 20 	movabs $0x206f7420656c6261,%rax
  402790:	74 6f 20 
  402793:	48 89 43 10          	mov    %rax,0x10(%rbx)
  402797:	48 b8 77 72 69 74 65 	movabs $0x6f74206574697277,%rax
  40279e:	20 74 6f 
  4027a1:	48 89 43 18          	mov    %rax,0x18(%rbx)
  4027a5:	48 b8 20 74 68 65 20 	movabs $0x7365722065687420,%rax
  4027ac:	72 65 73 
  4027af:	48 89 43 20          	mov    %rax,0x20(%rbx)
  4027b3:	48 b8 75 6c 74 20 73 	movabs $0x7672657320746c75,%rax
  4027ba:	65 72 76 
  4027bd:	48 89 43 28          	mov    %rax,0x28(%rbx)
  4027c1:	66 c7 43 30 65 72    	movw   $0x7265,0x30(%rbx)
  4027c7:	c6 43 32 00          	movb   $0x0,0x32(%rbx)
  4027cb:	89 ef                	mov    %ebp,%edi
  4027cd:	e8 6e e5 ff ff       	callq  400d40 <close@plt>
  4027d2:	b8 ff ff ff ff       	mov    $0xffffffff,%eax
  4027d7:	e9 1d 03 00 00       	jmpq   402af9 <submitr+0x735>
  4027dc:	89 ee                	mov    %ebp,%esi
  4027de:	48 8d bc 24 40 80 00 	lea    0x8040(%rsp),%rdi
  4027e5:	00 
  4027e6:	e8 25 f9 ff ff       	callq  402110 <rio_readinitb>
  4027eb:	ba 00 20 00 00       	mov    $0x2000,%edx
  4027f0:	48 8d 74 24 40       	lea    0x40(%rsp),%rsi
  4027f5:	48 8d bc 24 40 80 00 	lea    0x8040(%rsp),%rdi
  4027fc:	00 
  4027fd:	e8 31 fa ff ff       	callq  402233 <rio_readlineb>
  402802:	48 85 c0             	test   %rax,%rax
  402805:	7f 7d                	jg     402884 <submitr+0x4c0>
  402807:	48 b8 45 72 72 6f 72 	movabs $0x43203a726f727245,%rax
  40280e:	3a 20 43 
  402811:	48 89 03             	mov    %rax,(%rbx)
  402814:	48 b8 6c 69 65 6e 74 	movabs $0x6e7520746e65696c,%rax
  40281b:	20 75 6e 
  40281e:	48 89 43 08          	mov    %rax,0x8(%rbx)
  402822:	48 b8 61 62 6c 65 20 	movabs $0x206f7420656c6261,%rax
  402829:	74 6f 20 
  40282c:	48 89 43 10          	mov    %rax,0x10(%rbx)
  402830:	48 b8 72 65 61 64 20 	movabs $0x7269662064616572,%rax
  402837:	66 69 72 
  40283a:	48 89 43 18          	mov    %rax,0x18(%rbx)
  40283e:	48 b8 73 74 20 68 65 	movabs $0x6564616568207473,%rax
  402845:	61 64 65 
  402848:	48 89 43 20          	mov    %rax,0x20(%rbx)
  40284c:	48 b8 72 20 66 72 6f 	movabs $0x72206d6f72662072,%rax
  402853:	6d 20 72 
  402856:	48 89 43 28          	mov    %rax,0x28(%rbx)
  40285a:	48 b8 65 73 75 6c 74 	movabs $0x657320746c757365,%rax
  402861:	20 73 65 
  402864:	48 89 43 30          	mov    %rax,0x30(%rbx)
  402868:	c7 43 38 72 76 65 72 	movl   $0x72657672,0x38(%rbx)
  40286f:	c6 43 3c 00          	movb   $0x0,0x3c(%rbx)
  402873:	89 ef                	mov    %ebp,%edi
  402875:	e8 c6 e4 ff ff       	callq  400d40 <close@plt>
  40287a:	b8 ff ff ff ff       	mov    $0xffffffff,%eax
  40287f:	e9 75 02 00 00       	jmpq   402af9 <submitr+0x735>
  402884:	4c 8d 84 24 40 60 00 	lea    0x6040(%rsp),%r8
  40288b:	00 
  40288c:	48 8d 4c 24 2c       	lea    0x2c(%rsp),%rcx
  402891:	48 8d 94 24 40 40 00 	lea    0x4040(%rsp),%rdx
  402898:	00 
  402899:	be 1f 36 40 00       	mov    $0x40361f,%esi
  40289e:	48 8d 7c 24 40       	lea    0x40(%rsp),%rdi
  4028a3:	b8 00 00 00 00       	mov    $0x0,%eax
  4028a8:	e8 53 e5 ff ff       	callq  400e00 <__isoc99_sscanf@plt>
  4028ad:	41 bc 0d 00 00 00    	mov    $0xd,%r12d
  4028b3:	41 bd 0a 00 00 00    	mov    $0xa,%r13d
  4028b9:	e9 95 00 00 00       	jmpq   402953 <submitr+0x58f>
  4028be:	ba 00 20 00 00       	mov    $0x2000,%edx
  4028c3:	48 8d 74 24 40       	lea    0x40(%rsp),%rsi
  4028c8:	48 8d bc 24 40 80 00 	lea    0x8040(%rsp),%rdi
  4028cf:	00 
  4028d0:	e8 5e f9 ff ff       	callq  402233 <rio_readlineb>
  4028d5:	48 85 c0             	test   %rax,%rax
  4028d8:	7f 79                	jg     402953 <submitr+0x58f>
  4028da:	48 b8 45 72 72 6f 72 	movabs $0x43203a726f727245,%rax
  4028e1:	3a 20 43 
  4028e4:	48 89 03             	mov    %rax,(%rbx)
  4028e7:	48 b8 6c 69 65 6e 74 	movabs $0x6e7520746e65696c,%rax
  4028ee:	20 75 6e 
  4028f1:	48 89 43 08          	mov    %rax,0x8(%rbx)
  4028f5:	48 b8 61 62 6c 65 20 	movabs $0x206f7420656c6261,%rax
  4028fc:	74 6f 20 
  4028ff:	48 89 43 10          	mov    %rax,0x10(%rbx)
  402903:	48 b8 72 65 61 64 20 	movabs $0x6165682064616572,%rax
  40290a:	68 65 61 
  40290d:	48 89 43 18          	mov    %rax,0x18(%rbx)
  402911:	48 b8 64 65 72 73 20 	movabs $0x6f72662073726564,%rax
  402918:	66 72 6f 
  40291b:	48 89 43 20          	mov    %rax,0x20(%rbx)
  40291f:	48 b8 6d 20 74 68 65 	movabs $0x657220656874206d,%rax
  402926:	20 72 65 
  402929:	48 89 43 28          	mov    %rax,0x28(%rbx)
  40292d:	48 b8 73 75 6c 74 20 	movabs $0x72657320746c7573,%rax
  402934:	73 65 72 
  402937:	48 89 43 30          	mov    %rax,0x30(%rbx)
  40293b:	c7 43 38 76 65 72 00 	movl   $0x726576,0x38(%rbx)
  402942:	89 ef                	mov    %ebp,%edi
  402944:	e8 f7 e3 ff ff       	callq  400d40 <close@plt>
  402949:	b8 ff ff ff ff       	mov    $0xffffffff,%eax
  40294e:	e9 a6 01 00 00       	jmpq   402af9 <submitr+0x735>
  402953:	0f b6 44 24 40       	movzbl 0x40(%rsp),%eax
  402958:	44 89 e6             	mov    %r12d,%esi
  40295b:	29 c6                	sub    %eax,%esi
  40295d:	89 f0                	mov    %esi,%eax
  40295f:	75 15                	jne    402976 <submitr+0x5b2>
  402961:	0f b6 44 24 41       	movzbl 0x41(%rsp),%eax
  402966:	44 89 ea             	mov    %r13d,%edx
  402969:	29 c2                	sub    %eax,%edx
  40296b:	89 d0                	mov    %edx,%eax
  40296d:	75 07                	jne    402976 <submitr+0x5b2>
  40296f:	0f b6 44 24 42       	movzbl 0x42(%rsp),%eax
  402974:	f7 d8                	neg    %eax
  402976:	85 c0                	test   %eax,%eax
  402978:	0f 85 40 ff ff ff    	jne    4028be <submitr+0x4fa>
  40297e:	ba 00 20 00 00       	mov    $0x2000,%edx
  402983:	48 8d 74 24 40       	lea    0x40(%rsp),%rsi
  402988:	48 8d bc 24 40 80 00 	lea    0x8040(%rsp),%rdi
  40298f:	00 
  402990:	e8 9e f8 ff ff       	callq  402233 <rio_readlineb>
  402995:	48 85 c0             	test   %rax,%rax
  402998:	0f 8f 83 00 00 00    	jg     402a21 <submitr+0x65d>
  40299e:	48 b8 45 72 72 6f 72 	movabs $0x43203a726f727245,%rax
  4029a5:	3a 20 43 
  4029a8:	48 89 03             	mov    %rax,(%rbx)
  4029ab:	48 b8 6c 69 65 6e 74 	movabs $0x6e7520746e65696c,%rax
  4029b2:	20 75 6e 
  4029b5:	48 89 43 08          	mov    %rax,0x8(%rbx)
  4029b9:	48 b8 61 62 6c 65 20 	movabs $0x206f7420656c6261,%rax
  4029c0:	74 6f 20 
  4029c3:	48 89 43 10          	mov    %rax,0x10(%rbx)
  4029c7:	48 b8 72 65 61 64 20 	movabs $0x6174732064616572,%rax
  4029ce:	73 74 61 
  4029d1:	48 89 43 18          	mov    %rax,0x18(%rbx)
  4029d5:	48 b8 74 75 73 20 6d 	movabs $0x7373656d20737574,%rax
  4029dc:	65 73 73 
  4029df:	48 89 43 20          	mov    %rax,0x20(%rbx)
  4029e3:	48 b8 61 67 65 20 66 	movabs $0x6d6f726620656761,%rax
  4029ea:	72 6f 6d 
  4029ed:	48 89 43 28          	mov    %rax,0x28(%rbx)
  4029f1:	48 b8 20 72 65 73 75 	movabs $0x20746c7573657220,%rax
  4029f8:	6c 74 20 
  4029fb:	48 89 43 30          	mov    %rax,0x30(%rbx)
  4029ff:	c7 43 38 73 65 72 76 	movl   $0x76726573,0x38(%rbx)
  402a06:	66 c7 43 3c 65 72    	movw   $0x7265,0x3c(%rbx)
  402a0c:	c6 43 3e 00          	movb   $0x0,0x3e(%rbx)
  402a10:	89 ef                	mov    %ebp,%edi
  402a12:	e8 29 e3 ff ff       	callq  400d40 <close@plt>
  402a17:	b8 ff ff ff ff       	mov    $0xffffffff,%eax
  402a1c:	e9 d8 00 00 00       	jmpq   402af9 <submitr+0x735>
  402a21:	44 8b 44 24 2c       	mov    0x2c(%rsp),%r8d
  402a26:	41 81 f8 c8 00 00 00 	cmp    $0xc8,%r8d
  402a2d:	74 37                	je     402a66 <submitr+0x6a2>
  402a2f:	4c 8d 8c 24 40 60 00 	lea    0x6040(%rsp),%r9
  402a36:	00 
  402a37:	b9 e8 35 40 00       	mov    $0x4035e8,%ecx
  402a3c:	48 c7 c2 ff ff ff ff 	mov    $0xffffffffffffffff,%rdx
  402a43:	be 01 00 00 00       	mov    $0x1,%esi
  402a48:	48 89 df             	mov    %rbx,%rdi
  402a4b:	b8 00 00 00 00       	mov    $0x0,%eax
  402a50:	e8 4b e4 ff ff       	callq  400ea0 <__sprintf_chk@plt>
  402a55:	89 ef                	mov    %ebp,%edi
  402a57:	e8 e4 e2 ff ff       	callq  400d40 <close@plt>
  402a5c:	b8 ff ff ff ff       	mov    $0xffffffff,%eax
  402a61:	e9 93 00 00 00       	jmpq   402af9 <submitr+0x735>
  402a66:	48 8d 74 24 40       	lea    0x40(%rsp),%rsi
  402a6b:	48 89 df             	mov    %rbx,%rdi
  402a6e:	e8 5d e2 ff ff       	callq  400cd0 <strcpy@plt>
  402a73:	89 ef                	mov    %ebp,%edi
  402a75:	e8 c6 e2 ff ff       	callq  400d40 <close@plt>
  402a7a:	0f b6 03             	movzbl (%rbx),%eax
  402a7d:	ba 4f 00 00 00       	mov    $0x4f,%edx
  402a82:	29 c2                	sub    %eax,%edx
  402a84:	75 22                	jne    402aa8 <submitr+0x6e4>
  402a86:	0f b6 4b 01          	movzbl 0x1(%rbx),%ecx
  402a8a:	b8 4b 00 00 00       	mov    $0x4b,%eax
  402a8f:	29 c8                	sub    %ecx,%eax
  402a91:	75 17                	jne    402aaa <submitr+0x6e6>
  402a93:	0f b6 4b 02          	movzbl 0x2(%rbx),%ecx
  402a97:	b8 0a 00 00 00       	mov    $0xa,%eax
  402a9c:	29 c8                	sub    %ecx,%eax
  402a9e:	75 0a                	jne    402aaa <submitr+0x6e6>
  402aa0:	0f b6 43 03          	movzbl 0x3(%rbx),%eax
  402aa4:	f7 d8                	neg    %eax
  402aa6:	eb 02                	jmp    402aaa <submitr+0x6e6>
  402aa8:	89 d0                	mov    %edx,%eax
  402aaa:	85 c0                	test   %eax,%eax
  402aac:	74 38                	je     402ae6 <submitr+0x722>
  402aae:	bf 30 36 40 00       	mov    $0x403630,%edi
  402ab3:	b9 05 00 00 00       	mov    $0x5,%ecx
  402ab8:	48 89 de             	mov    %rbx,%rsi
  402abb:	f3 a6                	repz cmpsb %es:(%rdi),%ds:(%rsi)
  402abd:	0f 97 c1             	seta   %cl
  402ac0:	0f 92 c0             	setb   %al
  402ac3:	38 c1                	cmp    %al,%cl
  402ac5:	74 26                	je     402aed <submitr+0x729>
  402ac7:	85 d2                	test   %edx,%edx
  402ac9:	75 10                	jne    402adb <submitr+0x717>
  402acb:	0f b6 43 01          	movzbl 0x1(%rbx),%eax
  402acf:	b2 4b                	mov    $0x4b,%dl
  402ad1:	29 c2                	sub    %eax,%edx
  402ad3:	75 06                	jne    402adb <submitr+0x717>
  402ad5:	0f b6 53 02          	movzbl 0x2(%rbx),%edx
  402ad9:	f7 da                	neg    %edx
  402adb:	85 d2                	test   %edx,%edx
  402add:	75 15                	jne    402af4 <submitr+0x730>
  402adf:	b8 00 00 00 00       	mov    $0x0,%eax
  402ae4:	eb 13                	jmp    402af9 <submitr+0x735>
  402ae6:	b8 00 00 00 00       	mov    $0x0,%eax
  402aeb:	eb 0c                	jmp    402af9 <submitr+0x735>
  402aed:	b8 00 00 00 00       	mov    $0x0,%eax
  402af2:	eb 05                	jmp    402af9 <submitr+0x735>
  402af4:	b8 ff ff ff ff       	mov    $0xffffffff,%eax
  402af9:	48 8b 9c 24 58 a0 00 	mov    0xa058(%rsp),%rbx
  402b00:	00 
  402b01:	64 48 33 1c 25 28 00 	xor    %fs:0x28,%rbx
  402b08:	00 00 
  402b0a:	74 05                	je     402b11 <submitr+0x74d>
  402b0c:	e8 ef e1 ff ff       	callq  400d00 <__stack_chk_fail@plt>
  402b11:	48 81 c4 68 a0 00 00 	add    $0xa068,%rsp
  402b18:	5b                   	pop    %rbx
  402b19:	5d                   	pop    %rbp
  402b1a:	41 5c                	pop    %r12
  402b1c:	41 5d                	pop    %r13
  402b1e:	41 5e                	pop    %r14
  402b20:	41 5f                	pop    %r15
  402b22:	c3                   	retq   

0000000000402b23 <init_timeout>:
  402b23:	53                   	push   %rbx
  402b24:	89 fb                	mov    %edi,%ebx
  402b26:	85 ff                	test   %edi,%edi
  402b28:	74 1f                	je     402b49 <init_timeout+0x26>
  402b2a:	85 ff                	test   %edi,%edi
  402b2c:	79 05                	jns    402b33 <init_timeout+0x10>
  402b2e:	bb 00 00 00 00       	mov    $0x0,%ebx
  402b33:	be 22 21 40 00       	mov    $0x402122,%esi
  402b38:	bf 0e 00 00 00       	mov    $0xe,%edi
  402b3d:	e8 2e e2 ff ff       	callq  400d70 <signal@plt>
  402b42:	89 df                	mov    %ebx,%edi
  402b44:	e8 e7 e1 ff ff       	callq  400d30 <alarm@plt>
  402b49:	5b                   	pop    %rbx
  402b4a:	c3                   	retq   

0000000000402b4b <init_driver>:
  402b4b:	55                   	push   %rbp
  402b4c:	53                   	push   %rbx
  402b4d:	48 83 ec 28          	sub    $0x28,%rsp
  402b51:	48 89 fd             	mov    %rdi,%rbp
  402b54:	64 48 8b 04 25 28 00 	mov    %fs:0x28,%rax
  402b5b:	00 00 
  402b5d:	48 89 44 24 18       	mov    %rax,0x18(%rsp)
  402b62:	31 c0                	xor    %eax,%eax
  402b64:	be 01 00 00 00       	mov    $0x1,%esi
  402b69:	bf 0d 00 00 00       	mov    $0xd,%edi
  402b6e:	e8 fd e1 ff ff       	callq  400d70 <signal@plt>
  402b73:	be 01 00 00 00       	mov    $0x1,%esi
  402b78:	bf 1d 00 00 00       	mov    $0x1d,%edi
  402b7d:	e8 ee e1 ff ff       	callq  400d70 <signal@plt>
  402b82:	be 01 00 00 00       	mov    $0x1,%esi
  402b87:	bf 1d 00 00 00       	mov    $0x1d,%edi
  402b8c:	e8 df e1 ff ff       	callq  400d70 <signal@plt>
  402b91:	ba 00 00 00 00       	mov    $0x0,%edx
  402b96:	be 01 00 00 00       	mov    $0x1,%esi
  402b9b:	bf 02 00 00 00       	mov    $0x2,%edi
  402ba0:	e8 0b e3 ff ff       	callq  400eb0 <socket@plt>
  402ba5:	89 c3                	mov    %eax,%ebx
  402ba7:	85 c0                	test   %eax,%eax
  402ba9:	79 4f                	jns    402bfa <init_driver+0xaf>
  402bab:	48 b8 45 72 72 6f 72 	movabs $0x43203a726f727245,%rax
  402bb2:	3a 20 43 
  402bb5:	48 89 45 00          	mov    %rax,0x0(%rbp)
  402bb9:	48 b8 6c 69 65 6e 74 	movabs $0x6e7520746e65696c,%rax
  402bc0:	20 75 6e 
  402bc3:	48 89 45 08          	mov    %rax,0x8(%rbp)
  402bc7:	48 b8 61 62 6c 65 20 	movabs $0x206f7420656c6261,%rax
  402bce:	74 6f 20 
  402bd1:	48 89 45 10          	mov    %rax,0x10(%rbp)
  402bd5:	48 b8 63 72 65 61 74 	movabs $0x7320657461657263,%rax
  402bdc:	65 20 73 
  402bdf:	48 89 45 18          	mov    %rax,0x18(%rbp)
  402be3:	c7 45 20 6f 63 6b 65 	movl   $0x656b636f,0x20(%rbp)
  402bea:	66 c7 45 24 74 00    	movw   $0x74,0x24(%rbp)
  402bf0:	b8 ff ff ff ff       	mov    $0xffffffff,%eax
  402bf5:	e9 28 01 00 00       	jmpq   402d22 <init_driver+0x1d7>
  402bfa:	bf 35 36 40 00       	mov    $0x403635,%edi
  402bff:	e8 7c e1 ff ff       	callq  400d80 <gethostbyname@plt>
  402c04:	48 85 c0             	test   %rax,%rax
  402c07:	75 68                	jne    402c71 <init_driver+0x126>
  402c09:	48 b8 45 72 72 6f 72 	movabs $0x44203a726f727245,%rax
  402c10:	3a 20 44 
  402c13:	48 89 45 00          	mov    %rax,0x0(%rbp)
  402c17:	48 b8 4e 53 20 69 73 	movabs $0x6e7520736920534e,%rax
  402c1e:	20 75 6e 
  402c21:	48 89 45 08          	mov    %rax,0x8(%rbp)
  402c25:	48 b8 61 62 6c 65 20 	movabs $0x206f7420656c6261,%rax
  402c2c:	74 6f 20 
  402c2f:	48 89 45 10          	mov    %rax,0x10(%rbp)
  402c33:	48 b8 72 65 73 6f 6c 	movabs $0x2065766c6f736572,%rax
  402c3a:	76 65 20 
  402c3d:	48 89 45 18          	mov    %rax,0x18(%rbp)
  402c41:	48 b8 73 65 72 76 65 	movabs $0x6120726576726573,%rax
  402c48:	72 20 61 
  402c4b:	48 89 45 20          	mov    %rax,0x20(%rbp)
  402c4f:	c7 45 28 64 64 72 65 	movl   $0x65726464,0x28(%rbp)
  402c56:	66 c7 45 2c 73 73    	movw   $0x7373,0x2c(%rbp)
  402c5c:	c6 45 2e 00          	movb   $0x0,0x2e(%rbp)
  402c60:	89 df                	mov    %ebx,%edi
  402c62:	e8 d9 e0 ff ff       	callq  400d40 <close@plt>
  402c67:	b8 ff ff ff ff       	mov    $0xffffffff,%eax
  402c6c:	e9 b1 00 00 00       	jmpq   402d22 <init_driver+0x1d7>
  402c71:	48 c7 04 24 00 00 00 	movq   $0x0,(%rsp)
  402c78:	00 
  402c79:	48 c7 44 24 08 00 00 	movq   $0x0,0x8(%rsp)
  402c80:	00 00 
  402c82:	66 c7 04 24 02 00    	movw   $0x2,(%rsp)
  402c88:	48 63 50 14          	movslq 0x14(%rax),%rdx
  402c8c:	48 8b 40 18          	mov    0x18(%rax),%rax
  402c90:	48 8b 30             	mov    (%rax),%rsi
  402c93:	48 8d 7c 24 04       	lea    0x4(%rsp),%rdi
  402c98:	b9 0c 00 00 00       	mov    $0xc,%ecx
  402c9d:	e8 ee e0 ff ff       	callq  400d90 <__memmove_chk@plt>
  402ca2:	66 c7 44 24 02 3c 9a 	movw   $0x9a3c,0x2(%rsp)
  402ca9:	ba 10 00 00 00       	mov    $0x10,%edx
  402cae:	48 89 e6             	mov    %rsp,%rsi
  402cb1:	89 df                	mov    %ebx,%edi
  402cb3:	e8 c8 e1 ff ff       	callq  400e80 <connect@plt>
  402cb8:	85 c0                	test   %eax,%eax
  402cba:	79 50                	jns    402d0c <init_driver+0x1c1>
  402cbc:	48 b8 45 72 72 6f 72 	movabs $0x55203a726f727245,%rax
  402cc3:	3a 20 55 
  402cc6:	48 89 45 00          	mov    %rax,0x0(%rbp)
  402cca:	48 b8 6e 61 62 6c 65 	movabs $0x6f7420656c62616e,%rax
  402cd1:	20 74 6f 
  402cd4:	48 89 45 08          	mov    %rax,0x8(%rbp)
  402cd8:	48 b8 20 63 6f 6e 6e 	movabs $0x7463656e6e6f6320,%rax
  402cdf:	65 63 74 
  402ce2:	48 89 45 10          	mov    %rax,0x10(%rbp)
  402ce6:	48 b8 20 74 6f 20 73 	movabs $0x76726573206f7420,%rax
  402ced:	65 72 76 
  402cf0:	48 89 45 18          	mov    %rax,0x18(%rbp)
  402cf4:	66 c7 45 20 65 72    	movw   $0x7265,0x20(%rbp)
  402cfa:	c6 45 22 00          	movb   $0x0,0x22(%rbp)
  402cfe:	89 df                	mov    %ebx,%edi
  402d00:	e8 3b e0 ff ff       	callq  400d40 <close@plt>
  402d05:	b8 ff ff ff ff       	mov    $0xffffffff,%eax
  402d0a:	eb 16                	jmp    402d22 <init_driver+0x1d7>
  402d0c:	89 df                	mov    %ebx,%edi
  402d0e:	e8 2d e0 ff ff       	callq  400d40 <close@plt>
  402d13:	66 c7 45 00 4f 4b    	movw   $0x4b4f,0x0(%rbp)
  402d19:	c6 45 02 00          	movb   $0x0,0x2(%rbp)
  402d1d:	b8 00 00 00 00       	mov    $0x0,%eax
  402d22:	48 8b 4c 24 18       	mov    0x18(%rsp),%rcx
  402d27:	64 48 33 0c 25 28 00 	xor    %fs:0x28,%rcx
  402d2e:	00 00 
  402d30:	74 05                	je     402d37 <init_driver+0x1ec>
  402d32:	e8 c9 df ff ff       	callq  400d00 <__stack_chk_fail@plt>
  402d37:	48 83 c4 28          	add    $0x28,%rsp
  402d3b:	5b                   	pop    %rbx
  402d3c:	5d                   	pop    %rbp
  402d3d:	c3                   	retq   

0000000000402d3e <driver_post>:
  402d3e:	53                   	push   %rbx
  402d3f:	48 83 ec 10          	sub    $0x10,%rsp
  402d43:	4c 89 cb             	mov    %r9,%rbx
  402d46:	45 85 c0             	test   %r8d,%r8d
  402d49:	74 27                	je     402d72 <driver_post+0x34>
  402d4b:	48 89 ca             	mov    %rcx,%rdx
  402d4e:	be 3a 36 40 00       	mov    $0x40363a,%esi
  402d53:	bf 01 00 00 00       	mov    $0x1,%edi
  402d58:	b8 00 00 00 00       	mov    $0x0,%eax
  402d5d:	e8 be e0 ff ff       	callq  400e20 <__printf_chk@plt>
  402d62:	66 c7 03 4f 4b       	movw   $0x4b4f,(%rbx)
  402d67:	c6 43 02 00          	movb   $0x0,0x2(%rbx)
  402d6b:	b8 00 00 00 00       	mov    $0x0,%eax
  402d70:	eb 39                	jmp    402dab <driver_post+0x6d>
  402d72:	48 85 ff             	test   %rdi,%rdi
  402d75:	74 26                	je     402d9d <driver_post+0x5f>
  402d77:	80 3f 00             	cmpb   $0x0,(%rdi)
  402d7a:	74 21                	je     402d9d <driver_post+0x5f>
  402d7c:	4c 89 0c 24          	mov    %r9,(%rsp)
  402d80:	49 89 c9             	mov    %rcx,%r9
  402d83:	49 89 d0             	mov    %rdx,%r8
  402d86:	48 89 f9             	mov    %rdi,%rcx
  402d89:	48 89 f2             	mov    %rsi,%rdx
  402d8c:	be 9a 3c 00 00       	mov    $0x3c9a,%esi
  402d91:	bf 35 36 40 00       	mov    $0x403635,%edi
  402d96:	e8 29 f6 ff ff       	callq  4023c4 <submitr>
  402d9b:	eb 0e                	jmp    402dab <driver_post+0x6d>
  402d9d:	66 c7 03 4f 4b       	movw   $0x4b4f,(%rbx)
  402da2:	c6 43 02 00          	movb   $0x0,0x2(%rbx)
  402da6:	b8 00 00 00 00       	mov    $0x0,%eax
  402dab:	48 83 c4 10          	add    $0x10,%rsp
  402daf:	5b                   	pop    %rbx
  402db0:	c3                   	retq   

0000000000402db1 <check>:
  402db1:	89 f8                	mov    %edi,%eax
  402db3:	c1 e8 1c             	shr    $0x1c,%eax
  402db6:	85 c0                	test   %eax,%eax
  402db8:	74 1d                	je     402dd7 <check+0x26>
  402dba:	b9 00 00 00 00       	mov    $0x0,%ecx
  402dbf:	eb 0b                	jmp    402dcc <check+0x1b>
  402dc1:	89 f8                	mov    %edi,%eax
  402dc3:	d3 e8                	shr    %cl,%eax
  402dc5:	3c 0a                	cmp    $0xa,%al
  402dc7:	74 14                	je     402ddd <check+0x2c>
  402dc9:	83 c1 08             	add    $0x8,%ecx
  402dcc:	83 f9 1f             	cmp    $0x1f,%ecx
  402dcf:	7e f0                	jle    402dc1 <check+0x10>
  402dd1:	b8 01 00 00 00       	mov    $0x1,%eax
  402dd6:	c3                   	retq   
  402dd7:	b8 00 00 00 00       	mov    $0x0,%eax
  402ddc:	c3                   	retq   
  402ddd:	b8 00 00 00 00       	mov    $0x0,%eax
  402de2:	c3                   	retq   

0000000000402de3 <gencookie>:
  402de3:	53                   	push   %rbx
  402de4:	83 c7 01             	add    $0x1,%edi
  402de7:	e8 c4 de ff ff       	callq  400cb0 <srandom@plt>
  402dec:	e8 ef df ff ff       	callq  400de0 <random@plt>
  402df1:	89 c3                	mov    %eax,%ebx
  402df3:	89 c7                	mov    %eax,%edi
  402df5:	e8 b7 ff ff ff       	callq  402db1 <check>
  402dfa:	85 c0                	test   %eax,%eax
  402dfc:	74 ee                	je     402dec <gencookie+0x9>
  402dfe:	89 d8                	mov    %ebx,%eax
  402e00:	5b                   	pop    %rbx
  402e01:	c3                   	retq   
  402e02:	66 2e 0f 1f 84 00 00 	nopw   %cs:0x0(%rax,%rax,1)
  402e09:	00 00 00 
  402e0c:	0f 1f 40 00          	nopl   0x0(%rax)

0000000000402e10 <__libc_csu_init>:
  402e10:	41 57                	push   %r15
  402e12:	41 89 ff             	mov    %edi,%r15d
  402e15:	41 56                	push   %r14
  402e17:	49 89 f6             	mov    %rsi,%r14
  402e1a:	41 55                	push   %r13
  402e1c:	49 89 d5             	mov    %rdx,%r13
  402e1f:	41 54                	push   %r12
  402e21:	4c 8d 25 e8 0f 20 00 	lea    0x200fe8(%rip),%r12        # 603e10 <__frame_dummy_init_array_entry>
  402e28:	55                   	push   %rbp
  402e29:	48 8d 2d e8 0f 20 00 	lea    0x200fe8(%rip),%rbp        # 603e18 <__init_array_end>
  402e30:	53                   	push   %rbx
  402e31:	4c 29 e5             	sub    %r12,%rbp
  402e34:	31 db                	xor    %ebx,%ebx
  402e36:	48 c1 fd 03          	sar    $0x3,%rbp
  402e3a:	48 83 ec 08          	sub    $0x8,%rsp
  402e3e:	e8 1d de ff ff       	callq  400c60 <_init>
  402e43:	48 85 ed             	test   %rbp,%rbp
  402e46:	74 1e                	je     402e66 <__libc_csu_init+0x56>
  402e48:	0f 1f 84 00 00 00 00 	nopl   0x0(%rax,%rax,1)
  402e4f:	00 
  402e50:	4c 89 ea             	mov    %r13,%rdx
  402e53:	4c 89 f6             	mov    %r14,%rsi
  402e56:	44 89 ff             	mov    %r15d,%edi
  402e59:	41 ff 14 dc          	callq  *(%r12,%rbx,8)
  402e5d:	48 83 c3 01          	add    $0x1,%rbx
  402e61:	48 39 eb             	cmp    %rbp,%rbx
  402e64:	75 ea                	jne    402e50 <__libc_csu_init+0x40>
  402e66:	48 83 c4 08          	add    $0x8,%rsp
  402e6a:	5b                   	pop    %rbx
  402e6b:	5d                   	pop    %rbp
  402e6c:	41 5c                	pop    %r12
  402e6e:	41 5d                	pop    %r13
  402e70:	41 5e                	pop    %r14
  402e72:	41 5f                	pop    %r15
  402e74:	c3                   	retq   
  402e75:	66 66 2e 0f 1f 84 00 	data16 nopw %cs:0x0(%rax,%rax,1)
  402e7c:	00 00 00 00 

0000000000402e80 <__libc_csu_fini>:
  402e80:	f3 c3                	repz retq 

Disassembly of section .fini:

0000000000402e84 <_fini>:
  402e84:	48 83 ec 08          	sub    $0x8,%rsp
  402e88:	48 83 c4 08          	add    $0x8,%rsp
  402e8c:	c3                   	retq   
