
rtarget:     file format elf64-x86-64


Disassembly of section .init:

0000000000400c60 <_init>:
  400c60:	48 83 ec 08          	sub    $0x8,%rsp
  400c64:	48 8b 05 8d 43 20 00 	mov    0x20438d(%rip),%rax        # 604ff8 <__gmon_start__>
  400c6b:	48 85 c0             	test   %rax,%rax
  400c6e:	74 05                	je     400c75 <_init+0x15>
  400c70:	e8 2b 01 00 00       	callq  400da0 <__gmon_start__@plt>
  400c75:	48 83 c4 08          	add    $0x8,%rsp
  400c79:	c3                   	retq   

Disassembly of section .plt:

0000000000400c80 <.plt>:
  400c80:	ff 35 82 43 20 00    	pushq  0x204382(%rip)        # 605008 <_GLOBAL_OFFSET_TABLE_+0x8>
  400c86:	ff 25 84 43 20 00    	jmpq   *0x204384(%rip)        # 605010 <_GLOBAL_OFFSET_TABLE_+0x10>
  400c8c:	0f 1f 40 00          	nopl   0x0(%rax)

0000000000400c90 <strcasecmp@plt>:
  400c90:	ff 25 82 43 20 00    	jmpq   *0x204382(%rip)        # 605018 <strcasecmp@GLIBC_2.2.5>
  400c96:	68 00 00 00 00       	pushq  $0x0
  400c9b:	e9 e0 ff ff ff       	jmpq   400c80 <.plt>

0000000000400ca0 <__errno_location@plt>:
  400ca0:	ff 25 7a 43 20 00    	jmpq   *0x20437a(%rip)        # 605020 <__errno_location@GLIBC_2.2.5>
  400ca6:	68 01 00 00 00       	pushq  $0x1
  400cab:	e9 d0 ff ff ff       	jmpq   400c80 <.plt>

0000000000400cb0 <srandom@plt>:
  400cb0:	ff 25 72 43 20 00    	jmpq   *0x204372(%rip)        # 605028 <srandom@GLIBC_2.2.5>
  400cb6:	68 02 00 00 00       	pushq  $0x2
  400cbb:	e9 c0 ff ff ff       	jmpq   400c80 <.plt>

0000000000400cc0 <strncmp@plt>:
  400cc0:	ff 25 6a 43 20 00    	jmpq   *0x20436a(%rip)        # 605030 <strncmp@GLIBC_2.2.5>
  400cc6:	68 03 00 00 00       	pushq  $0x3
  400ccb:	e9 b0 ff ff ff       	jmpq   400c80 <.plt>

0000000000400cd0 <strcpy@plt>:
  400cd0:	ff 25 62 43 20 00    	jmpq   *0x204362(%rip)        # 605038 <strcpy@GLIBC_2.2.5>
  400cd6:	68 04 00 00 00       	pushq  $0x4
  400cdb:	e9 a0 ff ff ff       	jmpq   400c80 <.plt>

0000000000400ce0 <puts@plt>:
  400ce0:	ff 25 5a 43 20 00    	jmpq   *0x20435a(%rip)        # 605040 <puts@GLIBC_2.2.5>
  400ce6:	68 05 00 00 00       	pushq  $0x5
  400ceb:	e9 90 ff ff ff       	jmpq   400c80 <.plt>

0000000000400cf0 <write@plt>:
  400cf0:	ff 25 52 43 20 00    	jmpq   *0x204352(%rip)        # 605048 <write@GLIBC_2.2.5>
  400cf6:	68 06 00 00 00       	pushq  $0x6
  400cfb:	e9 80 ff ff ff       	jmpq   400c80 <.plt>

0000000000400d00 <__stack_chk_fail@plt>:
  400d00:	ff 25 4a 43 20 00    	jmpq   *0x20434a(%rip)        # 605050 <__stack_chk_fail@GLIBC_2.4>
  400d06:	68 07 00 00 00       	pushq  $0x7
  400d0b:	e9 70 ff ff ff       	jmpq   400c80 <.plt>

0000000000400d10 <mmap@plt>:
  400d10:	ff 25 42 43 20 00    	jmpq   *0x204342(%rip)        # 605058 <mmap@GLIBC_2.2.5>
  400d16:	68 08 00 00 00       	pushq  $0x8
  400d1b:	e9 60 ff ff ff       	jmpq   400c80 <.plt>

0000000000400d20 <memset@plt>:
  400d20:	ff 25 3a 43 20 00    	jmpq   *0x20433a(%rip)        # 605060 <memset@GLIBC_2.2.5>
  400d26:	68 09 00 00 00       	pushq  $0x9
  400d2b:	e9 50 ff ff ff       	jmpq   400c80 <.plt>

0000000000400d30 <alarm@plt>:
  400d30:	ff 25 32 43 20 00    	jmpq   *0x204332(%rip)        # 605068 <alarm@GLIBC_2.2.5>
  400d36:	68 0a 00 00 00       	pushq  $0xa
  400d3b:	e9 40 ff ff ff       	jmpq   400c80 <.plt>

0000000000400d40 <close@plt>:
  400d40:	ff 25 2a 43 20 00    	jmpq   *0x20432a(%rip)        # 605070 <close@GLIBC_2.2.5>
  400d46:	68 0b 00 00 00       	pushq  $0xb
  400d4b:	e9 30 ff ff ff       	jmpq   400c80 <.plt>

0000000000400d50 <read@plt>:
  400d50:	ff 25 22 43 20 00    	jmpq   *0x204322(%rip)        # 605078 <read@GLIBC_2.2.5>
  400d56:	68 0c 00 00 00       	pushq  $0xc
  400d5b:	e9 20 ff ff ff       	jmpq   400c80 <.plt>

0000000000400d60 <__libc_start_main@plt>:
  400d60:	ff 25 1a 43 20 00    	jmpq   *0x20431a(%rip)        # 605080 <__libc_start_main@GLIBC_2.2.5>
  400d66:	68 0d 00 00 00       	pushq  $0xd
  400d6b:	e9 10 ff ff ff       	jmpq   400c80 <.plt>

0000000000400d70 <signal@plt>:
  400d70:	ff 25 12 43 20 00    	jmpq   *0x204312(%rip)        # 605088 <signal@GLIBC_2.2.5>
  400d76:	68 0e 00 00 00       	pushq  $0xe
  400d7b:	e9 00 ff ff ff       	jmpq   400c80 <.plt>

0000000000400d80 <gethostbyname@plt>:
  400d80:	ff 25 0a 43 20 00    	jmpq   *0x20430a(%rip)        # 605090 <gethostbyname@GLIBC_2.2.5>
  400d86:	68 0f 00 00 00       	pushq  $0xf
  400d8b:	e9 f0 fe ff ff       	jmpq   400c80 <.plt>

0000000000400d90 <__memmove_chk@plt>:
  400d90:	ff 25 02 43 20 00    	jmpq   *0x204302(%rip)        # 605098 <__memmove_chk@GLIBC_2.3.4>
  400d96:	68 10 00 00 00       	pushq  $0x10
  400d9b:	e9 e0 fe ff ff       	jmpq   400c80 <.plt>

0000000000400da0 <__gmon_start__@plt>:
  400da0:	ff 25 fa 42 20 00    	jmpq   *0x2042fa(%rip)        # 6050a0 <__gmon_start__>
  400da6:	68 11 00 00 00       	pushq  $0x11
  400dab:	e9 d0 fe ff ff       	jmpq   400c80 <.plt>

0000000000400db0 <strtol@plt>:
  400db0:	ff 25 f2 42 20 00    	jmpq   *0x2042f2(%rip)        # 6050a8 <strtol@GLIBC_2.2.5>
  400db6:	68 12 00 00 00       	pushq  $0x12
  400dbb:	e9 c0 fe ff ff       	jmpq   400c80 <.plt>

0000000000400dc0 <memcpy@plt>:
  400dc0:	ff 25 ea 42 20 00    	jmpq   *0x2042ea(%rip)        # 6050b0 <memcpy@GLIBC_2.14>
  400dc6:	68 13 00 00 00       	pushq  $0x13
  400dcb:	e9 b0 fe ff ff       	jmpq   400c80 <.plt>

0000000000400dd0 <time@plt>:
  400dd0:	ff 25 e2 42 20 00    	jmpq   *0x2042e2(%rip)        # 6050b8 <time@GLIBC_2.2.5>
  400dd6:	68 14 00 00 00       	pushq  $0x14
  400ddb:	e9 a0 fe ff ff       	jmpq   400c80 <.plt>

0000000000400de0 <random@plt>:
  400de0:	ff 25 da 42 20 00    	jmpq   *0x2042da(%rip)        # 6050c0 <random@GLIBC_2.2.5>
  400de6:	68 15 00 00 00       	pushq  $0x15
  400deb:	e9 90 fe ff ff       	jmpq   400c80 <.plt>

0000000000400df0 <_IO_getc@plt>:
  400df0:	ff 25 d2 42 20 00    	jmpq   *0x2042d2(%rip)        # 6050c8 <_IO_getc@GLIBC_2.2.5>
  400df6:	68 16 00 00 00       	pushq  $0x16
  400dfb:	e9 80 fe ff ff       	jmpq   400c80 <.plt>

0000000000400e00 <__isoc99_sscanf@plt>:
  400e00:	ff 25 ca 42 20 00    	jmpq   *0x2042ca(%rip)        # 6050d0 <__isoc99_sscanf@GLIBC_2.7>
  400e06:	68 17 00 00 00       	pushq  $0x17
  400e0b:	e9 70 fe ff ff       	jmpq   400c80 <.plt>

0000000000400e10 <munmap@plt>:
  400e10:	ff 25 c2 42 20 00    	jmpq   *0x2042c2(%rip)        # 6050d8 <munmap@GLIBC_2.2.5>
  400e16:	68 18 00 00 00       	pushq  $0x18
  400e1b:	e9 60 fe ff ff       	jmpq   400c80 <.plt>

0000000000400e20 <__printf_chk@plt>:
  400e20:	ff 25 ba 42 20 00    	jmpq   *0x2042ba(%rip)        # 6050e0 <__printf_chk@GLIBC_2.3.4>
  400e26:	68 19 00 00 00       	pushq  $0x19
  400e2b:	e9 50 fe ff ff       	jmpq   400c80 <.plt>

0000000000400e30 <fopen@plt>:
  400e30:	ff 25 b2 42 20 00    	jmpq   *0x2042b2(%rip)        # 6050e8 <fopen@GLIBC_2.2.5>
  400e36:	68 1a 00 00 00       	pushq  $0x1a
  400e3b:	e9 40 fe ff ff       	jmpq   400c80 <.plt>

0000000000400e40 <getopt@plt>:
  400e40:	ff 25 aa 42 20 00    	jmpq   *0x2042aa(%rip)        # 6050f0 <getopt@GLIBC_2.2.5>
  400e46:	68 1b 00 00 00       	pushq  $0x1b
  400e4b:	e9 30 fe ff ff       	jmpq   400c80 <.plt>

0000000000400e50 <strtoul@plt>:
  400e50:	ff 25 a2 42 20 00    	jmpq   *0x2042a2(%rip)        # 6050f8 <strtoul@GLIBC_2.2.5>
  400e56:	68 1c 00 00 00       	pushq  $0x1c
  400e5b:	e9 20 fe ff ff       	jmpq   400c80 <.plt>

0000000000400e60 <gethostname@plt>:
  400e60:	ff 25 9a 42 20 00    	jmpq   *0x20429a(%rip)        # 605100 <gethostname@GLIBC_2.2.5>
  400e66:	68 1d 00 00 00       	pushq  $0x1d
  400e6b:	e9 10 fe ff ff       	jmpq   400c80 <.plt>

0000000000400e70 <exit@plt>:
  400e70:	ff 25 92 42 20 00    	jmpq   *0x204292(%rip)        # 605108 <exit@GLIBC_2.2.5>
  400e76:	68 1e 00 00 00       	pushq  $0x1e
  400e7b:	e9 00 fe ff ff       	jmpq   400c80 <.plt>

0000000000400e80 <connect@plt>:
  400e80:	ff 25 8a 42 20 00    	jmpq   *0x20428a(%rip)        # 605110 <connect@GLIBC_2.2.5>
  400e86:	68 1f 00 00 00       	pushq  $0x1f
  400e8b:	e9 f0 fd ff ff       	jmpq   400c80 <.plt>

0000000000400e90 <__fprintf_chk@plt>:
  400e90:	ff 25 82 42 20 00    	jmpq   *0x204282(%rip)        # 605118 <__fprintf_chk@GLIBC_2.3.4>
  400e96:	68 20 00 00 00       	pushq  $0x20
  400e9b:	e9 e0 fd ff ff       	jmpq   400c80 <.plt>

0000000000400ea0 <__sprintf_chk@plt>:
  400ea0:	ff 25 7a 42 20 00    	jmpq   *0x20427a(%rip)        # 605120 <__sprintf_chk@GLIBC_2.3.4>
  400ea6:	68 21 00 00 00       	pushq  $0x21
  400eab:	e9 d0 fd ff ff       	jmpq   400c80 <.plt>

0000000000400eb0 <socket@plt>:
  400eb0:	ff 25 72 42 20 00    	jmpq   *0x204272(%rip)        # 605128 <socket@GLIBC_2.2.5>
  400eb6:	68 22 00 00 00       	pushq  $0x22
  400ebb:	e9 c0 fd ff ff       	jmpq   400c80 <.plt>

Disassembly of section .text:

0000000000400ec0 <_start>:
  400ec0:	31 ed                	xor    %ebp,%ebp
  400ec2:	49 89 d1             	mov    %rdx,%r9
  400ec5:	5e                   	pop    %rsi
  400ec6:	48 89 e2             	mov    %rsp,%rdx
  400ec9:	48 83 e4 f0          	and    $0xfffffffffffffff0,%rsp
  400ecd:	50                   	push   %rax
  400ece:	54                   	push   %rsp
  400ecf:	49 c7 c0 a0 2f 40 00 	mov    $0x402fa0,%r8
  400ed6:	48 c7 c1 30 2f 40 00 	mov    $0x402f30,%rcx
  400edd:	48 c7 c7 93 11 40 00 	mov    $0x401193,%rdi
  400ee4:	e8 77 fe ff ff       	callq  400d60 <__libc_start_main@plt>
  400ee9:	f4                   	hlt    
  400eea:	66 0f 1f 44 00 00    	nopw   0x0(%rax,%rax,1)

0000000000400ef0 <deregister_tm_clones>:
  400ef0:	b8 b7 54 60 00       	mov    $0x6054b7,%eax
  400ef5:	55                   	push   %rbp
  400ef6:	48 2d b0 54 60 00    	sub    $0x6054b0,%rax
  400efc:	48 83 f8 0e          	cmp    $0xe,%rax
  400f00:	48 89 e5             	mov    %rsp,%rbp
  400f03:	77 02                	ja     400f07 <deregister_tm_clones+0x17>
  400f05:	5d                   	pop    %rbp
  400f06:	c3                   	retq   
  400f07:	b8 00 00 00 00       	mov    $0x0,%eax
  400f0c:	48 85 c0             	test   %rax,%rax
  400f0f:	74 f4                	je     400f05 <deregister_tm_clones+0x15>
  400f11:	5d                   	pop    %rbp
  400f12:	bf b0 54 60 00       	mov    $0x6054b0,%edi
  400f17:	ff e0                	jmpq   *%rax
  400f19:	0f 1f 80 00 00 00 00 	nopl   0x0(%rax)

0000000000400f20 <register_tm_clones>:
  400f20:	b8 b0 54 60 00       	mov    $0x6054b0,%eax
  400f25:	55                   	push   %rbp
  400f26:	48 2d b0 54 60 00    	sub    $0x6054b0,%rax
  400f2c:	48 c1 f8 03          	sar    $0x3,%rax
  400f30:	48 89 e5             	mov    %rsp,%rbp
  400f33:	48 89 c2             	mov    %rax,%rdx
  400f36:	48 c1 ea 3f          	shr    $0x3f,%rdx
  400f3a:	48 01 d0             	add    %rdx,%rax
  400f3d:	48 d1 f8             	sar    %rax
  400f40:	75 02                	jne    400f44 <register_tm_clones+0x24>
  400f42:	5d                   	pop    %rbp
  400f43:	c3                   	retq   
  400f44:	ba 00 00 00 00       	mov    $0x0,%edx
  400f49:	48 85 d2             	test   %rdx,%rdx
  400f4c:	74 f4                	je     400f42 <register_tm_clones+0x22>
  400f4e:	5d                   	pop    %rbp
  400f4f:	48 89 c6             	mov    %rax,%rsi
  400f52:	bf b0 54 60 00       	mov    $0x6054b0,%edi
  400f57:	ff e2                	jmpq   *%rdx
  400f59:	0f 1f 80 00 00 00 00 	nopl   0x0(%rax)

0000000000400f60 <__do_global_dtors_aux>:
  400f60:	80 3d 89 45 20 00 00 	cmpb   $0x0,0x204589(%rip)        # 6054f0 <completed.6982>
  400f67:	75 11                	jne    400f7a <__do_global_dtors_aux+0x1a>
  400f69:	55                   	push   %rbp
  400f6a:	48 89 e5             	mov    %rsp,%rbp
  400f6d:	e8 7e ff ff ff       	callq  400ef0 <deregister_tm_clones>
  400f72:	5d                   	pop    %rbp
  400f73:	c6 05 76 45 20 00 01 	movb   $0x1,0x204576(%rip)        # 6054f0 <completed.6982>
  400f7a:	f3 c3                	repz retq 
  400f7c:	0f 1f 40 00          	nopl   0x0(%rax)

0000000000400f80 <frame_dummy>:
  400f80:	48 83 3d 98 3e 20 00 	cmpq   $0x0,0x203e98(%rip)        # 604e20 <__JCR_END__>
  400f87:	00 
  400f88:	74 1e                	je     400fa8 <frame_dummy+0x28>
  400f8a:	b8 00 00 00 00       	mov    $0x0,%eax
  400f8f:	48 85 c0             	test   %rax,%rax
  400f92:	74 14                	je     400fa8 <frame_dummy+0x28>
  400f94:	55                   	push   %rbp
  400f95:	bf 20 4e 60 00       	mov    $0x604e20,%edi
  400f9a:	48 89 e5             	mov    %rsp,%rbp
  400f9d:	ff d0                	callq  *%rax
  400f9f:	5d                   	pop    %rbp
  400fa0:	e9 7b ff ff ff       	jmpq   400f20 <register_tm_clones>
  400fa5:	0f 1f 00             	nopl   (%rax)
  400fa8:	e9 73 ff ff ff       	jmpq   400f20 <register_tm_clones>
  400fad:	0f 1f 00             	nopl   (%rax)

0000000000400fb0 <usage>:
  400fb0:	48 83 ec 08          	sub    $0x8,%rsp
  400fb4:	48 89 fa             	mov    %rdi,%rdx
  400fb7:	83 3d 6a 45 20 00 00 	cmpl   $0x0,0x20456a(%rip)        # 605528 <is_checker>
  400fbe:	74 3e                	je     400ffe <usage+0x4e>
  400fc0:	be b8 2f 40 00       	mov    $0x402fb8,%esi
  400fc5:	bf 01 00 00 00       	mov    $0x1,%edi
  400fca:	b8 00 00 00 00       	mov    $0x0,%eax
  400fcf:	e8 4c fe ff ff       	callq  400e20 <__printf_chk@plt>
  400fd4:	bf f0 2f 40 00       	mov    $0x402ff0,%edi
  400fd9:	e8 02 fd ff ff       	callq  400ce0 <puts@plt>
  400fde:	bf 28 31 40 00       	mov    $0x403128,%edi
  400fe3:	e8 f8 fc ff ff       	callq  400ce0 <puts@plt>
  400fe8:	bf 18 30 40 00       	mov    $0x403018,%edi
  400fed:	e8 ee fc ff ff       	callq  400ce0 <puts@plt>
  400ff2:	bf 42 31 40 00       	mov    $0x403142,%edi
  400ff7:	e8 e4 fc ff ff       	callq  400ce0 <puts@plt>
  400ffc:	eb 32                	jmp    401030 <usage+0x80>
  400ffe:	be 5e 31 40 00       	mov    $0x40315e,%esi
  401003:	bf 01 00 00 00       	mov    $0x1,%edi
  401008:	b8 00 00 00 00       	mov    $0x0,%eax
  40100d:	e8 0e fe ff ff       	callq  400e20 <__printf_chk@plt>
  401012:	bf 40 30 40 00       	mov    $0x403040,%edi
  401017:	e8 c4 fc ff ff       	callq  400ce0 <puts@plt>
  40101c:	bf 68 30 40 00       	mov    $0x403068,%edi
  401021:	e8 ba fc ff ff       	callq  400ce0 <puts@plt>
  401026:	bf 7c 31 40 00       	mov    $0x40317c,%edi
  40102b:	e8 b0 fc ff ff       	callq  400ce0 <puts@plt>
  401030:	bf 00 00 00 00       	mov    $0x0,%edi
  401035:	e8 36 fe ff ff       	callq  400e70 <exit@plt>

000000000040103a <initialize_target>:
  40103a:	55                   	push   %rbp
  40103b:	53                   	push   %rbx
  40103c:	48 81 ec 18 21 00 00 	sub    $0x2118,%rsp
  401043:	89 f5                	mov    %esi,%ebp
  401045:	64 48 8b 04 25 28 00 	mov    %fs:0x28,%rax
  40104c:	00 00 
  40104e:	48 89 84 24 08 21 00 	mov    %rax,0x2108(%rsp)
  401055:	00 
  401056:	31 c0                	xor    %eax,%eax
  401058:	89 3d ba 44 20 00    	mov    %edi,0x2044ba(%rip)        # 605518 <check_level>
  40105e:	8b 3d 04 41 20 00    	mov    0x204104(%rip),%edi        # 605168 <target_id>
  401064:	e8 9a 1e 00 00       	callq  402f03 <gencookie>
  401069:	89 05 b5 44 20 00    	mov    %eax,0x2044b5(%rip)        # 605524 <cookie>
  40106f:	89 c7                	mov    %eax,%edi
  401071:	e8 8d 1e 00 00       	callq  402f03 <gencookie>
  401076:	89 05 a4 44 20 00    	mov    %eax,0x2044a4(%rip)        # 605520 <authkey>
  40107c:	8b 05 e6 40 20 00    	mov    0x2040e6(%rip),%eax        # 605168 <target_id>
  401082:	8d 78 01             	lea    0x1(%rax),%edi
  401085:	e8 26 fc ff ff       	callq  400cb0 <srandom@plt>
  40108a:	e8 51 fd ff ff       	callq  400de0 <random@plt>
  40108f:	89 c7                	mov    %eax,%edi
  401091:	e8 d7 02 00 00       	callq  40136d <scramble>
  401096:	89 c3                	mov    %eax,%ebx
  401098:	85 ed                	test   %ebp,%ebp
  40109a:	74 18                	je     4010b4 <initialize_target+0x7a>
  40109c:	bf 00 00 00 00       	mov    $0x0,%edi
  4010a1:	e8 2a fd ff ff       	callq  400dd0 <time@plt>
  4010a6:	89 c7                	mov    %eax,%edi
  4010a8:	e8 03 fc ff ff       	callq  400cb0 <srandom@plt>
  4010ad:	e8 2e fd ff ff       	callq  400de0 <random@plt>
  4010b2:	eb 05                	jmp    4010b9 <initialize_target+0x7f>
  4010b4:	b8 00 00 00 00       	mov    $0x0,%eax
  4010b9:	01 c3                	add    %eax,%ebx
  4010bb:	0f b7 db             	movzwl %bx,%ebx
  4010be:	8d 04 dd 00 01 00 00 	lea    0x100(,%rbx,8),%eax
  4010c5:	89 c0                	mov    %eax,%eax
  4010c7:	48 89 05 d2 43 20 00 	mov    %rax,0x2043d2(%rip)        # 6054a0 <buf_offset>
  4010ce:	c6 05 73 50 20 00 72 	movb   $0x72,0x205073(%rip)        # 606148 <target_prefix>
  4010d5:	83 3d cc 43 20 00 00 	cmpl   $0x0,0x2043cc(%rip)        # 6054a8 <notify>
  4010dc:	0f 84 8f 00 00 00    	je     401171 <initialize_target+0x137>
  4010e2:	83 3d 3f 44 20 00 00 	cmpl   $0x0,0x20443f(%rip)        # 605528 <is_checker>
  4010e9:	0f 85 82 00 00 00    	jne    401171 <initialize_target+0x137>
  4010ef:	be 00 01 00 00       	mov    $0x100,%esi
  4010f4:	48 89 e7             	mov    %rsp,%rdi
  4010f7:	e8 64 fd ff ff       	callq  400e60 <gethostname@plt>
  4010fc:	85 c0                	test   %eax,%eax
  4010fe:	74 25                	je     401125 <initialize_target+0xeb>
  401100:	bf 98 30 40 00       	mov    $0x403098,%edi
  401105:	e8 d6 fb ff ff       	callq  400ce0 <puts@plt>
  40110a:	bf 08 00 00 00       	mov    $0x8,%edi
  40110f:	e8 5c fd ff ff       	callq  400e70 <exit@plt>
  401114:	48 89 e6             	mov    %rsp,%rsi
  401117:	e8 74 fb ff ff       	callq  400c90 <strcasecmp@plt>
  40111c:	85 c0                	test   %eax,%eax
  40111e:	74 1a                	je     40113a <initialize_target+0x100>
  401120:	83 c3 01             	add    $0x1,%ebx
  401123:	eb 05                	jmp    40112a <initialize_target+0xf0>
  401125:	bb 00 00 00 00       	mov    $0x0,%ebx
  40112a:	48 63 c3             	movslq %ebx,%rax
  40112d:	48 8b 3c c5 80 51 60 	mov    0x605180(,%rax,8),%rdi
  401134:	00 
  401135:	48 85 ff             	test   %rdi,%rdi
  401138:	75 da                	jne    401114 <initialize_target+0xda>
  40113a:	48 8d bc 24 00 01 00 	lea    0x100(%rsp),%rdi
  401141:	00 
  401142:	e8 24 1b 00 00       	callq  402c6b <init_driver>
  401147:	85 c0                	test   %eax,%eax
  401149:	79 26                	jns    401171 <initialize_target+0x137>
  40114b:	48 8d 94 24 00 01 00 	lea    0x100(%rsp),%rdx
  401152:	00 
  401153:	be d0 30 40 00       	mov    $0x4030d0,%esi
  401158:	bf 01 00 00 00       	mov    $0x1,%edi
  40115d:	b8 00 00 00 00       	mov    $0x0,%eax
  401162:	e8 b9 fc ff ff       	callq  400e20 <__printf_chk@plt>
  401167:	bf 08 00 00 00       	mov    $0x8,%edi
  40116c:	e8 ff fc ff ff       	callq  400e70 <exit@plt>
  401171:	48 8b 84 24 08 21 00 	mov    0x2108(%rsp),%rax
  401178:	00 
  401179:	64 48 33 04 25 28 00 	xor    %fs:0x28,%rax
  401180:	00 00 
  401182:	74 05                	je     401189 <initialize_target+0x14f>
  401184:	e8 77 fb ff ff       	callq  400d00 <__stack_chk_fail@plt>
  401189:	48 81 c4 18 21 00 00 	add    $0x2118,%rsp
  401190:	5b                   	pop    %rbx
  401191:	5d                   	pop    %rbp
  401192:	c3                   	retq   

0000000000401193 <main>:
  401193:	41 56                	push   %r14
  401195:	41 55                	push   %r13
  401197:	41 54                	push   %r12
  401199:	55                   	push   %rbp
  40119a:	53                   	push   %rbx
  40119b:	41 89 fc             	mov    %edi,%r12d
  40119e:	48 89 f3             	mov    %rsi,%rbx
  4011a1:	be de 1f 40 00       	mov    $0x401fde,%esi
  4011a6:	bf 0b 00 00 00       	mov    $0xb,%edi
  4011ab:	e8 c0 fb ff ff       	callq  400d70 <signal@plt>
  4011b0:	be 90 1f 40 00       	mov    $0x401f90,%esi
  4011b5:	bf 07 00 00 00       	mov    $0x7,%edi
  4011ba:	e8 b1 fb ff ff       	callq  400d70 <signal@plt>
  4011bf:	be 2c 20 40 00       	mov    $0x40202c,%esi
  4011c4:	bf 04 00 00 00       	mov    $0x4,%edi
  4011c9:	e8 a2 fb ff ff       	callq  400d70 <signal@plt>
  4011ce:	83 3d 53 43 20 00 00 	cmpl   $0x0,0x204353(%rip)        # 605528 <is_checker>
  4011d5:	74 20                	je     4011f7 <main+0x64>
  4011d7:	be 7a 20 40 00       	mov    $0x40207a,%esi
  4011dc:	bf 0e 00 00 00       	mov    $0xe,%edi
  4011e1:	e8 8a fb ff ff       	callq  400d70 <signal@plt>
  4011e6:	bf 05 00 00 00       	mov    $0x5,%edi
  4011eb:	e8 40 fb ff ff       	callq  400d30 <alarm@plt>
  4011f0:	bd 9a 31 40 00       	mov    $0x40319a,%ebp
  4011f5:	eb 05                	jmp    4011fc <main+0x69>
  4011f7:	bd 95 31 40 00       	mov    $0x403195,%ebp
  4011fc:	48 8b 05 bd 42 20 00 	mov    0x2042bd(%rip),%rax        # 6054c0 <stdin@@GLIBC_2.2.5>
  401203:	48 89 05 06 43 20 00 	mov    %rax,0x204306(%rip)        # 605510 <infile>
  40120a:	41 bd 00 00 00 00    	mov    $0x0,%r13d
  401210:	41 be 00 00 00 00    	mov    $0x0,%r14d
  401216:	e9 c6 00 00 00       	jmpq   4012e1 <main+0x14e>
  40121b:	83 e8 61             	sub    $0x61,%eax
  40121e:	3c 10                	cmp    $0x10,%al
  401220:	0f 87 9c 00 00 00    	ja     4012c2 <main+0x12f>
  401226:	0f b6 c0             	movzbl %al,%eax
  401229:	ff 24 c5 e0 31 40 00 	jmpq   *0x4031e0(,%rax,8)
  401230:	48 8b 3b             	mov    (%rbx),%rdi
  401233:	e8 78 fd ff ff       	callq  400fb0 <usage>
  401238:	be 9e 32 40 00       	mov    $0x40329e,%esi
  40123d:	48 8b 3d 9c 42 20 00 	mov    0x20429c(%rip),%rdi        # 6054e0 <optarg@@GLIBC_2.2.5>
  401244:	e8 e7 fb ff ff       	callq  400e30 <fopen@plt>
  401249:	48 89 05 c0 42 20 00 	mov    %rax,0x2042c0(%rip)        # 605510 <infile>
  401250:	48 85 c0             	test   %rax,%rax
  401253:	0f 85 88 00 00 00    	jne    4012e1 <main+0x14e>
  401259:	48 8b 0d 80 42 20 00 	mov    0x204280(%rip),%rcx        # 6054e0 <optarg@@GLIBC_2.2.5>
  401260:	ba a2 31 40 00       	mov    $0x4031a2,%edx
  401265:	be 01 00 00 00       	mov    $0x1,%esi
  40126a:	48 8b 3d 77 42 20 00 	mov    0x204277(%rip),%rdi        # 6054e8 <stderr@@GLIBC_2.2.5>
  401271:	e8 1a fc ff ff       	callq  400e90 <__fprintf_chk@plt>
  401276:	b8 01 00 00 00       	mov    $0x1,%eax
  40127b:	e9 e4 00 00 00       	jmpq   401364 <main+0x1d1>
  401280:	ba 10 00 00 00       	mov    $0x10,%edx
  401285:	be 00 00 00 00       	mov    $0x0,%esi
  40128a:	48 8b 3d 4f 42 20 00 	mov    0x20424f(%rip),%rdi        # 6054e0 <optarg@@GLIBC_2.2.5>
  401291:	e8 ba fb ff ff       	callq  400e50 <strtoul@plt>
  401296:	41 89 c6             	mov    %eax,%r14d
  401299:	eb 46                	jmp    4012e1 <main+0x14e>
  40129b:	ba 0a 00 00 00       	mov    $0xa,%edx
  4012a0:	be 00 00 00 00       	mov    $0x0,%esi
  4012a5:	48 8b 3d 34 42 20 00 	mov    0x204234(%rip),%rdi        # 6054e0 <optarg@@GLIBC_2.2.5>
  4012ac:	e8 ff fa ff ff       	callq  400db0 <strtol@plt>
  4012b1:	41 89 c5             	mov    %eax,%r13d
  4012b4:	eb 2b                	jmp    4012e1 <main+0x14e>
  4012b6:	c7 05 e8 41 20 00 00 	movl   $0x0,0x2041e8(%rip)        # 6054a8 <notify>
  4012bd:	00 00 00 
  4012c0:	eb 1f                	jmp    4012e1 <main+0x14e>
  4012c2:	0f be d2             	movsbl %dl,%edx
  4012c5:	be bf 31 40 00       	mov    $0x4031bf,%esi
  4012ca:	bf 01 00 00 00       	mov    $0x1,%edi
  4012cf:	b8 00 00 00 00       	mov    $0x0,%eax
  4012d4:	e8 47 fb ff ff       	callq  400e20 <__printf_chk@plt>
  4012d9:	48 8b 3b             	mov    (%rbx),%rdi
  4012dc:	e8 cf fc ff ff       	callq  400fb0 <usage>
  4012e1:	48 89 ea             	mov    %rbp,%rdx
  4012e4:	48 89 de             	mov    %rbx,%rsi
  4012e7:	44 89 e7             	mov    %r12d,%edi
  4012ea:	e8 51 fb ff ff       	callq  400e40 <getopt@plt>
  4012ef:	89 c2                	mov    %eax,%edx
  4012f1:	3c ff                	cmp    $0xff,%al
  4012f3:	0f 85 22 ff ff ff    	jne    40121b <main+0x88>
  4012f9:	be 01 00 00 00       	mov    $0x1,%esi
  4012fe:	44 89 ef             	mov    %r13d,%edi
  401301:	e8 34 fd ff ff       	callq  40103a <initialize_target>
  401306:	83 3d 1b 42 20 00 00 	cmpl   $0x0,0x20421b(%rip)        # 605528 <is_checker>
  40130d:	74 2a                	je     401339 <main+0x1a6>
  40130f:	44 3b 35 0a 42 20 00 	cmp    0x20420a(%rip),%r14d        # 605520 <authkey>
  401316:	74 21                	je     401339 <main+0x1a6>
  401318:	44 89 f2             	mov    %r14d,%edx
  40131b:	be f8 30 40 00       	mov    $0x4030f8,%esi
  401320:	bf 01 00 00 00       	mov    $0x1,%edi
  401325:	b8 00 00 00 00       	mov    $0x0,%eax
  40132a:	e8 f1 fa ff ff       	callq  400e20 <__printf_chk@plt>
  40132f:	b8 00 00 00 00       	mov    $0x0,%eax
  401334:	e8 e2 08 00 00       	callq  401c1b <check_fail>
  401339:	8b 15 e5 41 20 00    	mov    0x2041e5(%rip),%edx        # 605524 <cookie>
  40133f:	be d2 31 40 00       	mov    $0x4031d2,%esi
  401344:	bf 01 00 00 00       	mov    $0x1,%edi
  401349:	b8 00 00 00 00       	mov    $0x0,%eax
  40134e:	e8 cd fa ff ff       	callq  400e20 <__printf_chk@plt>
  401353:	48 8b 3d 46 41 20 00 	mov    0x204146(%rip),%rdi        # 6054a0 <buf_offset>
  40135a:	e8 6e 0d 00 00       	callq  4020cd <launch>
  40135f:	b8 00 00 00 00       	mov    $0x0,%eax
  401364:	5b                   	pop    %rbx
  401365:	5d                   	pop    %rbp
  401366:	41 5c                	pop    %r12
  401368:	41 5d                	pop    %r13
  40136a:	41 5e                	pop    %r14
  40136c:	c3                   	retq   

000000000040136d <scramble>:
  40136d:	b8 00 00 00 00       	mov    $0x0,%eax
  401372:	eb 11                	jmp    401385 <scramble+0x18>
  401374:	69 c8 54 08 00 00    	imul   $0x854,%eax,%ecx
  40137a:	01 f9                	add    %edi,%ecx
  40137c:	89 c2                	mov    %eax,%edx
  40137e:	89 4c 94 c8          	mov    %ecx,-0x38(%rsp,%rdx,4)
  401382:	83 c0 01             	add    $0x1,%eax
  401385:	83 f8 09             	cmp    $0x9,%eax
  401388:	76 ea                	jbe    401374 <scramble+0x7>
  40138a:	8b 44 24 c8          	mov    -0x38(%rsp),%eax
  40138e:	69 c0 bb e8 00 00    	imul   $0xe8bb,%eax,%eax
  401394:	89 44 24 c8          	mov    %eax,-0x38(%rsp)
  401398:	8b 44 24 e4          	mov    -0x1c(%rsp),%eax
  40139c:	69 c0 10 61 00 00    	imul   $0x6110,%eax,%eax
  4013a2:	89 44 24 e4          	mov    %eax,-0x1c(%rsp)
  4013a6:	8b 44 24 e8          	mov    -0x18(%rsp),%eax
  4013aa:	69 c0 fa 29 00 00    	imul   $0x29fa,%eax,%eax
  4013b0:	89 44 24 e8          	mov    %eax,-0x18(%rsp)
  4013b4:	8b 44 24 d4          	mov    -0x2c(%rsp),%eax
  4013b8:	69 c0 36 f9 00 00    	imul   $0xf936,%eax,%eax
  4013be:	89 44 24 d4          	mov    %eax,-0x2c(%rsp)
  4013c2:	8b 44 24 d0          	mov    -0x30(%rsp),%eax
  4013c6:	69 c0 a9 71 00 00    	imul   $0x71a9,%eax,%eax
  4013cc:	89 44 24 d0          	mov    %eax,-0x30(%rsp)
  4013d0:	8b 44 24 e8          	mov    -0x18(%rsp),%eax
  4013d4:	69 c0 66 5d 00 00    	imul   $0x5d66,%eax,%eax
  4013da:	89 44 24 e8          	mov    %eax,-0x18(%rsp)
  4013de:	8b 44 24 ec          	mov    -0x14(%rsp),%eax
  4013e2:	69 c0 e9 f1 00 00    	imul   $0xf1e9,%eax,%eax
  4013e8:	89 44 24 ec          	mov    %eax,-0x14(%rsp)
  4013ec:	8b 44 24 d8          	mov    -0x28(%rsp),%eax
  4013f0:	69 c0 ae 9f 00 00    	imul   $0x9fae,%eax,%eax
  4013f6:	89 44 24 d8          	mov    %eax,-0x28(%rsp)
  4013fa:	8b 44 24 e8          	mov    -0x18(%rsp),%eax
  4013fe:	69 c0 39 e5 00 00    	imul   $0xe539,%eax,%eax
  401404:	89 44 24 e8          	mov    %eax,-0x18(%rsp)
  401408:	8b 44 24 c8          	mov    -0x38(%rsp),%eax
  40140c:	69 c0 43 a2 00 00    	imul   $0xa243,%eax,%eax
  401412:	89 44 24 c8          	mov    %eax,-0x38(%rsp)
  401416:	8b 44 24 e8          	mov    -0x18(%rsp),%eax
  40141a:	69 c0 32 76 00 00    	imul   $0x7632,%eax,%eax
  401420:	89 44 24 e8          	mov    %eax,-0x18(%rsp)
  401424:	8b 44 24 d4          	mov    -0x2c(%rsp),%eax
  401428:	69 c0 03 69 00 00    	imul   $0x6903,%eax,%eax
  40142e:	89 44 24 d4          	mov    %eax,-0x2c(%rsp)
  401432:	8b 44 24 c8          	mov    -0x38(%rsp),%eax
  401436:	69 c0 c3 c7 00 00    	imul   $0xc7c3,%eax,%eax
  40143c:	89 44 24 c8          	mov    %eax,-0x38(%rsp)
  401440:	8b 44 24 e0          	mov    -0x20(%rsp),%eax
  401444:	69 c0 45 bd 00 00    	imul   $0xbd45,%eax,%eax
  40144a:	89 44 24 e0          	mov    %eax,-0x20(%rsp)
  40144e:	8b 44 24 ec          	mov    -0x14(%rsp),%eax
  401452:	69 c0 6a ca 00 00    	imul   $0xca6a,%eax,%eax
  401458:	89 44 24 ec          	mov    %eax,-0x14(%rsp)
  40145c:	8b 44 24 e4          	mov    -0x1c(%rsp),%eax
  401460:	69 c0 7c 0b 00 00    	imul   $0xb7c,%eax,%eax
  401466:	89 44 24 e4          	mov    %eax,-0x1c(%rsp)
  40146a:	8b 44 24 c8          	mov    -0x38(%rsp),%eax
  40146e:	69 c0 65 91 00 00    	imul   $0x9165,%eax,%eax
  401474:	89 44 24 c8          	mov    %eax,-0x38(%rsp)
  401478:	8b 44 24 d0          	mov    -0x30(%rsp),%eax
  40147c:	69 c0 58 91 00 00    	imul   $0x9158,%eax,%eax
  401482:	89 44 24 d0          	mov    %eax,-0x30(%rsp)
  401486:	8b 44 24 d0          	mov    -0x30(%rsp),%eax
  40148a:	69 c0 87 bc 00 00    	imul   $0xbc87,%eax,%eax
  401490:	89 44 24 d0          	mov    %eax,-0x30(%rsp)
  401494:	8b 44 24 e0          	mov    -0x20(%rsp),%eax
  401498:	69 c0 8b 76 00 00    	imul   $0x768b,%eax,%eax
  40149e:	89 44 24 e0          	mov    %eax,-0x20(%rsp)
  4014a2:	8b 44 24 ec          	mov    -0x14(%rsp),%eax
  4014a6:	69 c0 1c ed 00 00    	imul   $0xed1c,%eax,%eax
  4014ac:	89 44 24 ec          	mov    %eax,-0x14(%rsp)
  4014b0:	8b 44 24 e4          	mov    -0x1c(%rsp),%eax
  4014b4:	69 c0 94 ed 00 00    	imul   $0xed94,%eax,%eax
  4014ba:	89 44 24 e4          	mov    %eax,-0x1c(%rsp)
  4014be:	8b 44 24 e4          	mov    -0x1c(%rsp),%eax
  4014c2:	69 c0 ae bb 00 00    	imul   $0xbbae,%eax,%eax
  4014c8:	89 44 24 e4          	mov    %eax,-0x1c(%rsp)
  4014cc:	8b 44 24 d8          	mov    -0x28(%rsp),%eax
  4014d0:	69 c0 53 4d 00 00    	imul   $0x4d53,%eax,%eax
  4014d6:	89 44 24 d8          	mov    %eax,-0x28(%rsp)
  4014da:	8b 44 24 c8          	mov    -0x38(%rsp),%eax
  4014de:	69 c0 ad cb 00 00    	imul   $0xcbad,%eax,%eax
  4014e4:	89 44 24 c8          	mov    %eax,-0x38(%rsp)
  4014e8:	8b 44 24 dc          	mov    -0x24(%rsp),%eax
  4014ec:	69 c0 2a 38 00 00    	imul   $0x382a,%eax,%eax
  4014f2:	89 44 24 dc          	mov    %eax,-0x24(%rsp)
  4014f6:	8b 44 24 dc          	mov    -0x24(%rsp),%eax
  4014fa:	69 c0 41 f5 00 00    	imul   $0xf541,%eax,%eax
  401500:	89 44 24 dc          	mov    %eax,-0x24(%rsp)
  401504:	8b 44 24 d0          	mov    -0x30(%rsp),%eax
  401508:	69 c0 5a 8c 00 00    	imul   $0x8c5a,%eax,%eax
  40150e:	89 44 24 d0          	mov    %eax,-0x30(%rsp)
  401512:	8b 44 24 ec          	mov    -0x14(%rsp),%eax
  401516:	69 c0 bd 40 00 00    	imul   $0x40bd,%eax,%eax
  40151c:	89 44 24 ec          	mov    %eax,-0x14(%rsp)
  401520:	8b 44 24 e4          	mov    -0x1c(%rsp),%eax
  401524:	69 c0 2d c0 00 00    	imul   $0xc02d,%eax,%eax
  40152a:	89 44 24 e4          	mov    %eax,-0x1c(%rsp)
  40152e:	8b 44 24 ec          	mov    -0x14(%rsp),%eax
  401532:	69 c0 b1 da 00 00    	imul   $0xdab1,%eax,%eax
  401538:	89 44 24 ec          	mov    %eax,-0x14(%rsp)
  40153c:	8b 44 24 d0          	mov    -0x30(%rsp),%eax
  401540:	69 c0 4c be 00 00    	imul   $0xbe4c,%eax,%eax
  401546:	89 44 24 d0          	mov    %eax,-0x30(%rsp)
  40154a:	8b 44 24 c8          	mov    -0x38(%rsp),%eax
  40154e:	69 c0 36 38 00 00    	imul   $0x3836,%eax,%eax
  401554:	89 44 24 c8          	mov    %eax,-0x38(%rsp)
  401558:	8b 44 24 d4          	mov    -0x2c(%rsp),%eax
  40155c:	69 c0 76 27 00 00    	imul   $0x2776,%eax,%eax
  401562:	89 44 24 d4          	mov    %eax,-0x2c(%rsp)
  401566:	8b 44 24 d8          	mov    -0x28(%rsp),%eax
  40156a:	69 c0 32 da 00 00    	imul   $0xda32,%eax,%eax
  401570:	89 44 24 d8          	mov    %eax,-0x28(%rsp)
  401574:	8b 44 24 e8          	mov    -0x18(%rsp),%eax
  401578:	69 c0 ed 22 00 00    	imul   $0x22ed,%eax,%eax
  40157e:	89 44 24 e8          	mov    %eax,-0x18(%rsp)
  401582:	8b 44 24 e8          	mov    -0x18(%rsp),%eax
  401586:	69 c0 f3 71 00 00    	imul   $0x71f3,%eax,%eax
  40158c:	89 44 24 e8          	mov    %eax,-0x18(%rsp)
  401590:	8b 44 24 d8          	mov    -0x28(%rsp),%eax
  401594:	69 c0 53 a6 00 00    	imul   $0xa653,%eax,%eax
  40159a:	89 44 24 d8          	mov    %eax,-0x28(%rsp)
  40159e:	8b 44 24 e8          	mov    -0x18(%rsp),%eax
  4015a2:	69 c0 c5 9d 00 00    	imul   $0x9dc5,%eax,%eax
  4015a8:	89 44 24 e8          	mov    %eax,-0x18(%rsp)
  4015ac:	8b 44 24 d0          	mov    -0x30(%rsp),%eax
  4015b0:	69 c0 8a ce 00 00    	imul   $0xce8a,%eax,%eax
  4015b6:	89 44 24 d0          	mov    %eax,-0x30(%rsp)
  4015ba:	8b 44 24 e8          	mov    -0x18(%rsp),%eax
  4015be:	69 c0 3c e3 00 00    	imul   $0xe33c,%eax,%eax
  4015c4:	89 44 24 e8          	mov    %eax,-0x18(%rsp)
  4015c8:	8b 44 24 ec          	mov    -0x14(%rsp),%eax
  4015cc:	69 c0 51 ab 00 00    	imul   $0xab51,%eax,%eax
  4015d2:	89 44 24 ec          	mov    %eax,-0x14(%rsp)
  4015d6:	8b 44 24 e4          	mov    -0x1c(%rsp),%eax
  4015da:	69 c0 e1 a7 00 00    	imul   $0xa7e1,%eax,%eax
  4015e0:	89 44 24 e4          	mov    %eax,-0x1c(%rsp)
  4015e4:	8b 44 24 c8          	mov    -0x38(%rsp),%eax
  4015e8:	69 c0 82 95 00 00    	imul   $0x9582,%eax,%eax
  4015ee:	89 44 24 c8          	mov    %eax,-0x38(%rsp)
  4015f2:	8b 44 24 d4          	mov    -0x2c(%rsp),%eax
  4015f6:	69 c0 4a 81 00 00    	imul   $0x814a,%eax,%eax
  4015fc:	89 44 24 d4          	mov    %eax,-0x2c(%rsp)
  401600:	8b 44 24 ec          	mov    -0x14(%rsp),%eax
  401604:	69 c0 c5 f3 00 00    	imul   $0xf3c5,%eax,%eax
  40160a:	89 44 24 ec          	mov    %eax,-0x14(%rsp)
  40160e:	8b 44 24 cc          	mov    -0x34(%rsp),%eax
  401612:	69 c0 58 21 00 00    	imul   $0x2158,%eax,%eax
  401618:	89 44 24 cc          	mov    %eax,-0x34(%rsp)
  40161c:	8b 44 24 e0          	mov    -0x20(%rsp),%eax
  401620:	69 c0 12 c8 00 00    	imul   $0xc812,%eax,%eax
  401626:	89 44 24 e0          	mov    %eax,-0x20(%rsp)
  40162a:	8b 44 24 e8          	mov    -0x18(%rsp),%eax
  40162e:	69 c0 b5 01 00 00    	imul   $0x1b5,%eax,%eax
  401634:	89 44 24 e8          	mov    %eax,-0x18(%rsp)
  401638:	8b 44 24 e4          	mov    -0x1c(%rsp),%eax
  40163c:	69 c0 4b 4e 00 00    	imul   $0x4e4b,%eax,%eax
  401642:	89 44 24 e4          	mov    %eax,-0x1c(%rsp)
  401646:	8b 44 24 cc          	mov    -0x34(%rsp),%eax
  40164a:	69 c0 8a 8d 00 00    	imul   $0x8d8a,%eax,%eax
  401650:	89 44 24 cc          	mov    %eax,-0x34(%rsp)
  401654:	8b 44 24 c8          	mov    -0x38(%rsp),%eax
  401658:	69 c0 35 a3 00 00    	imul   $0xa335,%eax,%eax
  40165e:	89 44 24 c8          	mov    %eax,-0x38(%rsp)
  401662:	8b 44 24 d0          	mov    -0x30(%rsp),%eax
  401666:	69 c0 bb 81 00 00    	imul   $0x81bb,%eax,%eax
  40166c:	89 44 24 d0          	mov    %eax,-0x30(%rsp)
  401670:	8b 44 24 e0          	mov    -0x20(%rsp),%eax
  401674:	69 c0 20 2d 00 00    	imul   $0x2d20,%eax,%eax
  40167a:	89 44 24 e0          	mov    %eax,-0x20(%rsp)
  40167e:	8b 44 24 e0          	mov    -0x20(%rsp),%eax
  401682:	69 c0 2e 3d 00 00    	imul   $0x3d2e,%eax,%eax
  401688:	89 44 24 e0          	mov    %eax,-0x20(%rsp)
  40168c:	8b 44 24 d0          	mov    -0x30(%rsp),%eax
  401690:	69 c0 f2 88 00 00    	imul   $0x88f2,%eax,%eax
  401696:	89 44 24 d0          	mov    %eax,-0x30(%rsp)
  40169a:	8b 44 24 e4          	mov    -0x1c(%rsp),%eax
  40169e:	69 c0 5e 02 00 00    	imul   $0x25e,%eax,%eax
  4016a4:	89 44 24 e4          	mov    %eax,-0x1c(%rsp)
  4016a8:	8b 44 24 ec          	mov    -0x14(%rsp),%eax
  4016ac:	69 c0 e8 f8 00 00    	imul   $0xf8e8,%eax,%eax
  4016b2:	89 44 24 ec          	mov    %eax,-0x14(%rsp)
  4016b6:	8b 44 24 d8          	mov    -0x28(%rsp),%eax
  4016ba:	69 c0 ee 6b 00 00    	imul   $0x6bee,%eax,%eax
  4016c0:	89 44 24 d8          	mov    %eax,-0x28(%rsp)
  4016c4:	8b 44 24 d8          	mov    -0x28(%rsp),%eax
  4016c8:	69 c0 dd 92 00 00    	imul   $0x92dd,%eax,%eax
  4016ce:	89 44 24 d8          	mov    %eax,-0x28(%rsp)
  4016d2:	8b 44 24 e8          	mov    -0x18(%rsp),%eax
  4016d6:	69 c0 19 e4 00 00    	imul   $0xe419,%eax,%eax
  4016dc:	89 44 24 e8          	mov    %eax,-0x18(%rsp)
  4016e0:	8b 44 24 cc          	mov    -0x34(%rsp),%eax
  4016e4:	69 c0 34 49 00 00    	imul   $0x4934,%eax,%eax
  4016ea:	89 44 24 cc          	mov    %eax,-0x34(%rsp)
  4016ee:	8b 44 24 e0          	mov    -0x20(%rsp),%eax
  4016f2:	69 c0 b3 38 00 00    	imul   $0x38b3,%eax,%eax
  4016f8:	89 44 24 e0          	mov    %eax,-0x20(%rsp)
  4016fc:	8b 44 24 d8          	mov    -0x28(%rsp),%eax
  401700:	69 c0 00 5f 00 00    	imul   $0x5f00,%eax,%eax
  401706:	89 44 24 d8          	mov    %eax,-0x28(%rsp)
  40170a:	8b 44 24 ec          	mov    -0x14(%rsp),%eax
  40170e:	69 c0 ce 00 00 00    	imul   $0xce,%eax,%eax
  401714:	89 44 24 ec          	mov    %eax,-0x14(%rsp)
  401718:	8b 44 24 cc          	mov    -0x34(%rsp),%eax
  40171c:	69 c0 4f 16 00 00    	imul   $0x164f,%eax,%eax
  401722:	89 44 24 cc          	mov    %eax,-0x34(%rsp)
  401726:	8b 44 24 c8          	mov    -0x38(%rsp),%eax
  40172a:	69 c0 84 1e 00 00    	imul   $0x1e84,%eax,%eax
  401730:	89 44 24 c8          	mov    %eax,-0x38(%rsp)
  401734:	8b 44 24 cc          	mov    -0x34(%rsp),%eax
  401738:	69 c0 d7 8d 00 00    	imul   $0x8dd7,%eax,%eax
  40173e:	89 44 24 cc          	mov    %eax,-0x34(%rsp)
  401742:	8b 44 24 e4          	mov    -0x1c(%rsp),%eax
  401746:	69 c0 0c 03 00 00    	imul   $0x30c,%eax,%eax
  40174c:	89 44 24 e4          	mov    %eax,-0x1c(%rsp)
  401750:	8b 44 24 e0          	mov    -0x20(%rsp),%eax
  401754:	69 c0 bf bf 00 00    	imul   $0xbfbf,%eax,%eax
  40175a:	89 44 24 e0          	mov    %eax,-0x20(%rsp)
  40175e:	8b 44 24 e4          	mov    -0x1c(%rsp),%eax
  401762:	69 c0 a1 b6 00 00    	imul   $0xb6a1,%eax,%eax
  401768:	89 44 24 e4          	mov    %eax,-0x1c(%rsp)
  40176c:	8b 44 24 d4          	mov    -0x2c(%rsp),%eax
  401770:	69 c0 a4 60 00 00    	imul   $0x60a4,%eax,%eax
  401776:	89 44 24 d4          	mov    %eax,-0x2c(%rsp)
  40177a:	8b 44 24 d0          	mov    -0x30(%rsp),%eax
  40177e:	69 c0 f4 7c 00 00    	imul   $0x7cf4,%eax,%eax
  401784:	89 44 24 d0          	mov    %eax,-0x30(%rsp)
  401788:	8b 44 24 c8          	mov    -0x38(%rsp),%eax
  40178c:	69 c0 3e 63 00 00    	imul   $0x633e,%eax,%eax
  401792:	89 44 24 c8          	mov    %eax,-0x38(%rsp)
  401796:	8b 44 24 dc          	mov    -0x24(%rsp),%eax
  40179a:	69 c0 f6 e7 00 00    	imul   $0xe7f6,%eax,%eax
  4017a0:	89 44 24 dc          	mov    %eax,-0x24(%rsp)
  4017a4:	8b 44 24 e4          	mov    -0x1c(%rsp),%eax
  4017a8:	69 c0 1b d6 00 00    	imul   $0xd61b,%eax,%eax
  4017ae:	89 44 24 e4          	mov    %eax,-0x1c(%rsp)
  4017b2:	8b 44 24 cc          	mov    -0x34(%rsp),%eax
  4017b6:	69 c0 bd 7c 00 00    	imul   $0x7cbd,%eax,%eax
  4017bc:	89 44 24 cc          	mov    %eax,-0x34(%rsp)
  4017c0:	8b 44 24 d8          	mov    -0x28(%rsp),%eax
  4017c4:	69 c0 81 d1 00 00    	imul   $0xd181,%eax,%eax
  4017ca:	89 44 24 d8          	mov    %eax,-0x28(%rsp)
  4017ce:	8b 44 24 cc          	mov    -0x34(%rsp),%eax
  4017d2:	69 c0 95 30 00 00    	imul   $0x3095,%eax,%eax
  4017d8:	89 44 24 cc          	mov    %eax,-0x34(%rsp)
  4017dc:	8b 44 24 dc          	mov    -0x24(%rsp),%eax
  4017e0:	69 c0 d8 ef 00 00    	imul   $0xefd8,%eax,%eax
  4017e6:	89 44 24 dc          	mov    %eax,-0x24(%rsp)
  4017ea:	8b 44 24 d4          	mov    -0x2c(%rsp),%eax
  4017ee:	69 c0 cc dd 00 00    	imul   $0xddcc,%eax,%eax
  4017f4:	89 44 24 d4          	mov    %eax,-0x2c(%rsp)
  4017f8:	8b 44 24 cc          	mov    -0x34(%rsp),%eax
  4017fc:	69 c0 bc bf 00 00    	imul   $0xbfbc,%eax,%eax
  401802:	89 44 24 cc          	mov    %eax,-0x34(%rsp)
  401806:	8b 44 24 ec          	mov    -0x14(%rsp),%eax
  40180a:	69 c0 ab bf 00 00    	imul   $0xbfab,%eax,%eax
  401810:	89 44 24 ec          	mov    %eax,-0x14(%rsp)
  401814:	8b 44 24 e4          	mov    -0x1c(%rsp),%eax
  401818:	69 c0 90 9c 00 00    	imul   $0x9c90,%eax,%eax
  40181e:	89 44 24 e4          	mov    %eax,-0x1c(%rsp)
  401822:	8b 44 24 d0          	mov    -0x30(%rsp),%eax
  401826:	69 c0 8a 08 00 00    	imul   $0x88a,%eax,%eax
  40182c:	89 44 24 d0          	mov    %eax,-0x30(%rsp)
  401830:	8b 44 24 dc          	mov    -0x24(%rsp),%eax
  401834:	69 c0 f1 02 00 00    	imul   $0x2f1,%eax,%eax
  40183a:	89 44 24 dc          	mov    %eax,-0x24(%rsp)
  40183e:	8b 44 24 d4          	mov    -0x2c(%rsp),%eax
  401842:	69 c0 01 a5 00 00    	imul   $0xa501,%eax,%eax
  401848:	89 44 24 d4          	mov    %eax,-0x2c(%rsp)
  40184c:	8b 44 24 e0          	mov    -0x20(%rsp),%eax
  401850:	69 c0 2a 78 00 00    	imul   $0x782a,%eax,%eax
  401856:	89 44 24 e0          	mov    %eax,-0x20(%rsp)
  40185a:	8b 44 24 d0          	mov    -0x30(%rsp),%eax
  40185e:	69 c0 22 bd 00 00    	imul   $0xbd22,%eax,%eax
  401864:	89 44 24 d0          	mov    %eax,-0x30(%rsp)
  401868:	8b 44 24 e0          	mov    -0x20(%rsp),%eax
  40186c:	69 c0 d8 0a 00 00    	imul   $0xad8,%eax,%eax
  401872:	89 44 24 e0          	mov    %eax,-0x20(%rsp)
  401876:	8b 44 24 d4          	mov    -0x2c(%rsp),%eax
  40187a:	69 c0 83 d1 00 00    	imul   $0xd183,%eax,%eax
  401880:	89 44 24 d4          	mov    %eax,-0x2c(%rsp)
  401884:	ba 00 00 00 00       	mov    $0x0,%edx
  401889:	b8 00 00 00 00       	mov    $0x0,%eax
  40188e:	eb 0b                	jmp    40189b <scramble+0x52e>
  401890:	89 d1                	mov    %edx,%ecx
  401892:	8b 4c 8c c8          	mov    -0x38(%rsp,%rcx,4),%ecx
  401896:	01 c8                	add    %ecx,%eax
  401898:	83 c2 01             	add    $0x1,%edx
  40189b:	83 fa 09             	cmp    $0x9,%edx
  40189e:	76 f0                	jbe    401890 <scramble+0x523>
  4018a0:	f3 c3                	repz retq 

00000000004018a2 <getbuf>:
  4018a2:	48 83 ec 38          	sub    $0x38,%rsp
  4018a6:	48 89 e7             	mov    %rsp,%rdi
  4018a9:	e8 a2 03 00 00       	callq  401c50 <Gets>
  4018ae:	b8 01 00 00 00       	mov    $0x1,%eax
  4018b3:	48 83 c4 38          	add    $0x38,%rsp
  4018b7:	c3                   	retq   

00000000004018b8 <touch1>:
  4018b8:	48 83 ec 08          	sub    $0x8,%rsp
  4018bc:	c7 05 56 3c 20 00 01 	movl   $0x1,0x203c56(%rip)        # 60551c <vlevel>
  4018c3:	00 00 00 
  4018c6:	bf a0 32 40 00       	mov    $0x4032a0,%edi
  4018cb:	e8 10 f4 ff ff       	callq  400ce0 <puts@plt>
  4018d0:	bf 01 00 00 00       	mov    $0x1,%edi
  4018d5:	e8 cc 05 00 00       	callq  401ea6 <validate>
  4018da:	bf 00 00 00 00       	mov    $0x0,%edi
  4018df:	e8 8c f5 ff ff       	callq  400e70 <exit@plt>

00000000004018e4 <touch2>:
  4018e4:	48 83 ec 08          	sub    $0x8,%rsp
  4018e8:	89 fa                	mov    %edi,%edx
  4018ea:	c7 05 28 3c 20 00 02 	movl   $0x2,0x203c28(%rip)        # 60551c <vlevel>
  4018f1:	00 00 00 
  4018f4:	3b 3d 2a 3c 20 00    	cmp    0x203c2a(%rip),%edi        # 605524 <cookie>
  4018fa:	75 20                	jne    40191c <touch2+0x38>
  4018fc:	be c8 32 40 00       	mov    $0x4032c8,%esi
  401901:	bf 01 00 00 00       	mov    $0x1,%edi
  401906:	b8 00 00 00 00       	mov    $0x0,%eax
  40190b:	e8 10 f5 ff ff       	callq  400e20 <__printf_chk@plt>
  401910:	bf 02 00 00 00       	mov    $0x2,%edi
  401915:	e8 8c 05 00 00       	callq  401ea6 <validate>
  40191a:	eb 1e                	jmp    40193a <touch2+0x56>
  40191c:	be f0 32 40 00       	mov    $0x4032f0,%esi
  401921:	bf 01 00 00 00       	mov    $0x1,%edi
  401926:	b8 00 00 00 00       	mov    $0x0,%eax
  40192b:	e8 f0 f4 ff ff       	callq  400e20 <__printf_chk@plt>
  401930:	bf 02 00 00 00       	mov    $0x2,%edi
  401935:	e8 2e 06 00 00       	callq  401f68 <fail>
  40193a:	bf 00 00 00 00       	mov    $0x0,%edi
  40193f:	e8 2c f5 ff ff       	callq  400e70 <exit@plt>

0000000000401944 <hexmatch>:
  401944:	41 54                	push   %r12
  401946:	55                   	push   %rbp
  401947:	53                   	push   %rbx
  401948:	48 83 c4 80          	add    $0xffffffffffffff80,%rsp
  40194c:	41 89 fc             	mov    %edi,%r12d
  40194f:	48 89 f5             	mov    %rsi,%rbp
  401952:	64 48 8b 04 25 28 00 	mov    %fs:0x28,%rax
  401959:	00 00 
  40195b:	48 89 44 24 78       	mov    %rax,0x78(%rsp)
  401960:	31 c0                	xor    %eax,%eax
  401962:	e8 79 f4 ff ff       	callq  400de0 <random@plt>
  401967:	48 89 c1             	mov    %rax,%rcx
  40196a:	48 ba 0b d7 a3 70 3d 	movabs $0xa3d70a3d70a3d70b,%rdx
  401971:	0a d7 a3 
  401974:	48 f7 ea             	imul   %rdx
  401977:	48 01 ca             	add    %rcx,%rdx
  40197a:	48 c1 fa 06          	sar    $0x6,%rdx
  40197e:	48 89 c8             	mov    %rcx,%rax
  401981:	48 c1 f8 3f          	sar    $0x3f,%rax
  401985:	48 29 c2             	sub    %rax,%rdx
  401988:	48 8d 04 92          	lea    (%rdx,%rdx,4),%rax
  40198c:	48 8d 04 80          	lea    (%rax,%rax,4),%rax
  401990:	48 c1 e0 02          	shl    $0x2,%rax
  401994:	48 29 c1             	sub    %rax,%rcx
  401997:	48 8d 1c 0c          	lea    (%rsp,%rcx,1),%rbx
  40199b:	45 89 e0             	mov    %r12d,%r8d
  40199e:	b9 bd 32 40 00       	mov    $0x4032bd,%ecx
  4019a3:	48 c7 c2 ff ff ff ff 	mov    $0xffffffffffffffff,%rdx
  4019aa:	be 01 00 00 00       	mov    $0x1,%esi
  4019af:	48 89 df             	mov    %rbx,%rdi
  4019b2:	b8 00 00 00 00       	mov    $0x0,%eax
  4019b7:	e8 e4 f4 ff ff       	callq  400ea0 <__sprintf_chk@plt>
  4019bc:	ba 09 00 00 00       	mov    $0x9,%edx
  4019c1:	48 89 de             	mov    %rbx,%rsi
  4019c4:	48 89 ef             	mov    %rbp,%rdi
  4019c7:	e8 f4 f2 ff ff       	callq  400cc0 <strncmp@plt>
  4019cc:	85 c0                	test   %eax,%eax
  4019ce:	0f 94 c0             	sete   %al
  4019d1:	0f b6 c0             	movzbl %al,%eax
  4019d4:	48 8b 74 24 78       	mov    0x78(%rsp),%rsi
  4019d9:	64 48 33 34 25 28 00 	xor    %fs:0x28,%rsi
  4019e0:	00 00 
  4019e2:	74 05                	je     4019e9 <hexmatch+0xa5>
  4019e4:	e8 17 f3 ff ff       	callq  400d00 <__stack_chk_fail@plt>
  4019e9:	48 83 ec 80          	sub    $0xffffffffffffff80,%rsp
  4019ed:	5b                   	pop    %rbx
  4019ee:	5d                   	pop    %rbp
  4019ef:	41 5c                	pop    %r12
  4019f1:	c3                   	retq   

00000000004019f2 <touch3>:
  4019f2:	53                   	push   %rbx
  4019f3:	48 89 fb             	mov    %rdi,%rbx
  4019f6:	c7 05 1c 3b 20 00 03 	movl   $0x3,0x203b1c(%rip)        # 60551c <vlevel>
  4019fd:	00 00 00 
  401a00:	48 89 fe             	mov    %rdi,%rsi
  401a03:	8b 3d 1b 3b 20 00    	mov    0x203b1b(%rip),%edi        # 605524 <cookie>
  401a09:	e8 36 ff ff ff       	callq  401944 <hexmatch>
  401a0e:	85 c0                	test   %eax,%eax
  401a10:	74 23                	je     401a35 <touch3+0x43>
  401a12:	48 89 da             	mov    %rbx,%rdx
  401a15:	be 18 33 40 00       	mov    $0x403318,%esi
  401a1a:	bf 01 00 00 00       	mov    $0x1,%edi
  401a1f:	b8 00 00 00 00       	mov    $0x0,%eax
  401a24:	e8 f7 f3 ff ff       	callq  400e20 <__printf_chk@plt>
  401a29:	bf 03 00 00 00       	mov    $0x3,%edi
  401a2e:	e8 73 04 00 00       	callq  401ea6 <validate>
  401a33:	eb 21                	jmp    401a56 <touch3+0x64>
  401a35:	48 89 da             	mov    %rbx,%rdx
  401a38:	be 40 33 40 00       	mov    $0x403340,%esi
  401a3d:	bf 01 00 00 00       	mov    $0x1,%edi
  401a42:	b8 00 00 00 00       	mov    $0x0,%eax
  401a47:	e8 d4 f3 ff ff       	callq  400e20 <__printf_chk@plt>
  401a4c:	bf 03 00 00 00       	mov    $0x3,%edi
  401a51:	e8 12 05 00 00       	callq  401f68 <fail>
  401a56:	bf 00 00 00 00       	mov    $0x0,%edi
  401a5b:	e8 10 f4 ff ff       	callq  400e70 <exit@plt>

0000000000401a60 <test>:
  401a60:	48 83 ec 08          	sub    $0x8,%rsp
  401a64:	b8 00 00 00 00       	mov    $0x0,%eax
  401a69:	e8 34 fe ff ff       	callq  4018a2 <getbuf>
  401a6e:	89 c2                	mov    %eax,%edx
  401a70:	be 68 33 40 00       	mov    $0x403368,%esi
  401a75:	bf 01 00 00 00       	mov    $0x1,%edi
  401a7a:	b8 00 00 00 00       	mov    $0x0,%eax
  401a7f:	e8 9c f3 ff ff       	callq  400e20 <__printf_chk@plt>
  401a84:	48 83 c4 08          	add    $0x8,%rsp
  401a88:	c3                   	retq   

0000000000401a89 <start_farm>:
  401a89:	b8 01 00 00 00       	mov    $0x1,%eax
  401a8e:	c3                   	retq   

0000000000401a8f <getval_371>:
  401a8f:	b8 48 89 c7 90       	mov    $0x90c78948,%eax
  401a94:	c3                   	retq   

0000000000401a95 <setval_312>:
  401a95:	c7 07 d6 48 89 c7    	movl   $0xc78948d6,(%rdi)
  401a9b:	c3                   	retq   

0000000000401a9c <getval_137>:
  401a9c:	b8 48 89 c7 92       	mov    $0x92c78948,%eax
  401aa1:	c3                   	retq   

0000000000401aa2 <addval_497>:
  401aa2:	8d 87 7a 8e 58 90    	lea    -0x6fa77186(%rdi),%eax
  401aa8:	c3                   	retq   

0000000000401aa9 <getval_414>:
  401aa9:	b8 80 23 58 c1       	mov    $0xc1582380,%eax
  401aae:	c3                   	retq   

0000000000401aaf <addval_157>:
  401aaf:	8d 87 58 c3 9c 13    	lea    0x139cc358(%rdi),%eax
  401ab5:	c3                   	retq   

0000000000401ab6 <addval_300>:
  401ab6:	8d 87 14 18 90 90    	lea    -0x6f6fe7ec(%rdi),%eax
  401abc:	c3                   	retq   

0000000000401abd <setval_289>:
  401abd:	c7 07 08 89 c7 c3    	movl   $0xc3c78908,(%rdi)
  401ac3:	c3                   	retq   

0000000000401ac4 <mid_farm>:
  401ac4:	b8 01 00 00 00       	mov    $0x1,%eax
  401ac9:	c3                   	retq   

0000000000401aca <add_xy>:
  401aca:	48 8d 04 37          	lea    (%rdi,%rsi,1),%rax
  401ace:	c3                   	retq   

0000000000401acf <addval_385>:
  401acf:	8d 87 48 89 e0 94    	lea    -0x6b1f76b8(%rdi),%eax
  401ad5:	c3                   	retq   

0000000000401ad6 <addval_467>:
  401ad6:	8d 87 08 89 e0 90    	lea    -0x6f1f76f8(%rdi),%eax
  401adc:	c3                   	retq   

0000000000401add <setval_311>:
  401add:	c7 07 89 d1 18 c9    	movl   $0xc918d189,(%rdi)
  401ae3:	c3                   	retq   

0000000000401ae4 <addval_288>:
  401ae4:	8d 87 88 c2 38 c9    	lea    -0x36c73d78(%rdi),%eax
  401aea:	c3                   	retq   

0000000000401aeb <getval_109>:
  401aeb:	b8 48 89 e0 c2       	mov    $0xc2e08948,%eax
  401af0:	c3                   	retq   

0000000000401af1 <getval_248>:
  401af1:	b8 48 99 e0 c3       	mov    $0xc3e09948,%eax
  401af6:	c3                   	retq   

0000000000401af7 <addval_405>:
  401af7:	8d 87 89 d1 48 c9    	lea    -0x36b72e77(%rdi),%eax
  401afd:	c3                   	retq   

0000000000401afe <getval_271>:
  401afe:	b8 48 89 e0 c3       	mov    $0xc3e08948,%eax
  401b03:	c3                   	retq   

0000000000401b04 <setval_387>:
  401b04:	c7 07 89 ce 38 d2    	movl   $0xd238ce89,(%rdi)
  401b0a:	c3                   	retq   

0000000000401b0b <addval_448>:
  401b0b:	8d 87 a9 c2 38 db    	lea    -0x24c73d57(%rdi),%eax
  401b11:	c3                   	retq   

0000000000401b12 <addval_363>:
  401b12:	8d 87 89 d1 c3 36    	lea    0x36c3d189(%rdi),%eax
  401b18:	c3                   	retq   

0000000000401b19 <getval_116>:
  401b19:	b8 89 ce 92 90       	mov    $0x9092ce89,%eax
  401b1e:	c3                   	retq   

0000000000401b1f <addval_145>:
  401b1f:	8d 87 89 d1 c7 7a    	lea    0x7ac7d189(%rdi),%eax
  401b25:	c3                   	retq   

0000000000401b26 <addval_186>:
  401b26:	8d 87 89 ce a4 c0    	lea    -0x3f5b3177(%rdi),%eax
  401b2c:	c3                   	retq   

0000000000401b2d <addval_254>:
  401b2d:	8d 87 89 ce 90 90    	lea    -0x6f6f3177(%rdi),%eax
  401b33:	c3                   	retq   

0000000000401b34 <getval_418>:
  401b34:	b8 89 c2 60 c9       	mov    $0xc960c289,%eax
  401b39:	c3                   	retq   

0000000000401b3a <setval_272>:
  401b3a:	c7 07 89 c2 20 db    	movl   $0xdb20c289,(%rdi)
  401b40:	c3                   	retq   

0000000000401b41 <addval_470>:
  401b41:	8d 87 89 d1 28 c9    	lea    -0x36d72e77(%rdi),%eax
  401b47:	c3                   	retq   

0000000000401b48 <getval_489>:
  401b48:	b8 89 c2 30 d2       	mov    $0xd230c289,%eax
  401b4d:	c3                   	retq   

0000000000401b4e <setval_159>:
  401b4e:	c7 07 89 ce 00 c0    	movl   $0xc000ce89,(%rdi)
  401b54:	c3                   	retq   

0000000000401b55 <getval_463>:
  401b55:	b8 9d 89 d1 c2       	mov    $0xc2d1899d,%eax
  401b5a:	c3                   	retq   

0000000000401b5b <getval_149>:
  401b5b:	b8 89 c2 08 c9       	mov    $0xc908c289,%eax
  401b60:	c3                   	retq   

0000000000401b61 <addval_182>:
  401b61:	8d 87 c9 c2 38 d2    	lea    -0x2dc73d37(%rdi),%eax
  401b67:	c3                   	retq   

0000000000401b68 <addval_362>:
  401b68:	8d 87 48 89 e0 c3    	lea    -0x3c1f76b8(%rdi),%eax
  401b6e:	c3                   	retq   

0000000000401b6f <setval_215>:
  401b6f:	c7 07 a9 d1 84 db    	movl   $0xdb84d1a9,(%rdi)
  401b75:	c3                   	retq   

0000000000401b76 <getval_127>:
  401b76:	b8 58 89 e0 c3       	mov    $0xc3e08958,%eax
  401b7b:	c3                   	retq   

0000000000401b7c <setval_498>:
  401b7c:	c7 07 99 ce 84 c0    	movl   $0xc084ce99,(%rdi)
  401b82:	c3                   	retq   

0000000000401b83 <addval_117>:
  401b83:	8d 87 89 c2 c4 d2    	lea    -0x2d3b3d77(%rdi),%eax
  401b89:	c3                   	retq   

0000000000401b8a <getval_128>:
  401b8a:	b8 48 89 e0 94       	mov    $0x94e08948,%eax
  401b8f:	c3                   	retq   

0000000000401b90 <setval_282>:
  401b90:	c7 07 c5 89 ce c1    	movl   $0xc1ce89c5,(%rdi)
  401b96:	c3                   	retq   

0000000000401b97 <setval_434>:
  401b97:	c7 07 89 ce c2 75    	movl   $0x75c2ce89,(%rdi)
  401b9d:	c3                   	retq   

0000000000401b9e <addval_217>:
  401b9e:	8d 87 89 d1 90 c3    	lea    -0x3c6f2e77(%rdi),%eax
  401ba4:	c3                   	retq   

0000000000401ba5 <end_farm>:
  401ba5:	b8 01 00 00 00       	mov    $0x1,%eax
  401baa:	c3                   	retq   
  401bab:	0f 1f 44 00 00       	nopl   0x0(%rax,%rax,1)

0000000000401bb0 <save_char>:
  401bb0:	8b 05 8e 45 20 00    	mov    0x20458e(%rip),%eax        # 606144 <gets_cnt>
  401bb6:	3d ff 03 00 00       	cmp    $0x3ff,%eax
  401bbb:	7f 49                	jg     401c06 <save_char+0x56>
  401bbd:	8d 14 40             	lea    (%rax,%rax,2),%edx
  401bc0:	89 f9                	mov    %edi,%ecx
  401bc2:	c0 e9 04             	shr    $0x4,%cl
  401bc5:	83 e1 0f             	and    $0xf,%ecx
  401bc8:	0f b6 b1 90 36 40 00 	movzbl 0x403690(%rcx),%esi
  401bcf:	48 63 ca             	movslq %edx,%rcx
  401bd2:	40 88 b1 40 55 60 00 	mov    %sil,0x605540(%rcx)
  401bd9:	8d 4a 01             	lea    0x1(%rdx),%ecx
  401bdc:	83 e7 0f             	and    $0xf,%edi
  401bdf:	0f b6 b7 90 36 40 00 	movzbl 0x403690(%rdi),%esi
  401be6:	48 63 c9             	movslq %ecx,%rcx
  401be9:	40 88 b1 40 55 60 00 	mov    %sil,0x605540(%rcx)
  401bf0:	83 c2 02             	add    $0x2,%edx
  401bf3:	48 63 d2             	movslq %edx,%rdx
  401bf6:	c6 82 40 55 60 00 20 	movb   $0x20,0x605540(%rdx)
  401bfd:	83 c0 01             	add    $0x1,%eax
  401c00:	89 05 3e 45 20 00    	mov    %eax,0x20453e(%rip)        # 606144 <gets_cnt>
  401c06:	f3 c3                	repz retq 

0000000000401c08 <save_term>:
  401c08:	8b 05 36 45 20 00    	mov    0x204536(%rip),%eax        # 606144 <gets_cnt>
  401c0e:	8d 04 40             	lea    (%rax,%rax,2),%eax
  401c11:	48 98                	cltq   
  401c13:	c6 80 40 55 60 00 00 	movb   $0x0,0x605540(%rax)
  401c1a:	c3                   	retq   

0000000000401c1b <check_fail>:
  401c1b:	48 83 ec 08          	sub    $0x8,%rsp
  401c1f:	0f be 15 22 45 20 00 	movsbl 0x204522(%rip),%edx        # 606148 <target_prefix>
  401c26:	41 b8 40 55 60 00    	mov    $0x605540,%r8d
  401c2c:	8b 0d e6 38 20 00    	mov    0x2038e6(%rip),%ecx        # 605518 <check_level>
  401c32:	be 8b 33 40 00       	mov    $0x40338b,%esi
  401c37:	bf 01 00 00 00       	mov    $0x1,%edi
  401c3c:	b8 00 00 00 00       	mov    $0x0,%eax
  401c41:	e8 da f1 ff ff       	callq  400e20 <__printf_chk@plt>
  401c46:	bf 01 00 00 00       	mov    $0x1,%edi
  401c4b:	e8 20 f2 ff ff       	callq  400e70 <exit@plt>

0000000000401c50 <Gets>:
  401c50:	41 54                	push   %r12
  401c52:	55                   	push   %rbp
  401c53:	53                   	push   %rbx
  401c54:	49 89 fc             	mov    %rdi,%r12
  401c57:	c7 05 e3 44 20 00 00 	movl   $0x0,0x2044e3(%rip)        # 606144 <gets_cnt>
  401c5e:	00 00 00 
  401c61:	48 89 fb             	mov    %rdi,%rbx
  401c64:	eb 11                	jmp    401c77 <Gets+0x27>
  401c66:	48 8d 6b 01          	lea    0x1(%rbx),%rbp
  401c6a:	88 03                	mov    %al,(%rbx)
  401c6c:	0f b6 f8             	movzbl %al,%edi
  401c6f:	e8 3c ff ff ff       	callq  401bb0 <save_char>
  401c74:	48 89 eb             	mov    %rbp,%rbx
  401c77:	48 8b 3d 92 38 20 00 	mov    0x203892(%rip),%rdi        # 605510 <infile>
  401c7e:	e8 6d f1 ff ff       	callq  400df0 <_IO_getc@plt>
  401c83:	83 f8 ff             	cmp    $0xffffffff,%eax
  401c86:	74 05                	je     401c8d <Gets+0x3d>
  401c88:	83 f8 0a             	cmp    $0xa,%eax
  401c8b:	75 d9                	jne    401c66 <Gets+0x16>
  401c8d:	c6 03 00             	movb   $0x0,(%rbx)
  401c90:	b8 00 00 00 00       	mov    $0x0,%eax
  401c95:	e8 6e ff ff ff       	callq  401c08 <save_term>
  401c9a:	4c 89 e0             	mov    %r12,%rax
  401c9d:	5b                   	pop    %rbx
  401c9e:	5d                   	pop    %rbp
  401c9f:	41 5c                	pop    %r12
  401ca1:	c3                   	retq   

0000000000401ca2 <notify_server>:
  401ca2:	53                   	push   %rbx
  401ca3:	48 81 ec 30 40 00 00 	sub    $0x4030,%rsp
  401caa:	64 48 8b 04 25 28 00 	mov    %fs:0x28,%rax
  401cb1:	00 00 
  401cb3:	48 89 84 24 28 40 00 	mov    %rax,0x4028(%rsp)
  401cba:	00 
  401cbb:	31 c0                	xor    %eax,%eax
  401cbd:	83 3d 64 38 20 00 00 	cmpl   $0x0,0x203864(%rip)        # 605528 <is_checker>
  401cc4:	0f 85 bb 01 00 00    	jne    401e85 <notify_server+0x1e3>
  401cca:	89 fb                	mov    %edi,%ebx
  401ccc:	8b 05 72 44 20 00    	mov    0x204472(%rip),%eax        # 606144 <gets_cnt>
  401cd2:	83 c0 64             	add    $0x64,%eax
  401cd5:	3d 00 20 00 00       	cmp    $0x2000,%eax
  401cda:	7e 1e                	jle    401cfa <notify_server+0x58>
  401cdc:	be c0 34 40 00       	mov    $0x4034c0,%esi
  401ce1:	bf 01 00 00 00       	mov    $0x1,%edi
  401ce6:	b8 00 00 00 00       	mov    $0x0,%eax
  401ceb:	e8 30 f1 ff ff       	callq  400e20 <__printf_chk@plt>
  401cf0:	bf 01 00 00 00       	mov    $0x1,%edi
  401cf5:	e8 76 f1 ff ff       	callq  400e70 <exit@plt>
  401cfa:	0f be 05 47 44 20 00 	movsbl 0x204447(%rip),%eax        # 606148 <target_prefix>
  401d01:	83 3d a0 37 20 00 00 	cmpl   $0x0,0x2037a0(%rip)        # 6054a8 <notify>
  401d08:	74 08                	je     401d12 <notify_server+0x70>
  401d0a:	8b 15 10 38 20 00    	mov    0x203810(%rip),%edx        # 605520 <authkey>
  401d10:	eb 05                	jmp    401d17 <notify_server+0x75>
  401d12:	ba ff ff ff ff       	mov    $0xffffffff,%edx
  401d17:	85 db                	test   %ebx,%ebx
  401d19:	74 08                	je     401d23 <notify_server+0x81>
  401d1b:	41 b9 a1 33 40 00    	mov    $0x4033a1,%r9d
  401d21:	eb 06                	jmp    401d29 <notify_server+0x87>
  401d23:	41 b9 a6 33 40 00    	mov    $0x4033a6,%r9d
  401d29:	48 c7 44 24 18 40 55 	movq   $0x605540,0x18(%rsp)
  401d30:	60 00 
  401d32:	89 74 24 10          	mov    %esi,0x10(%rsp)
  401d36:	89 44 24 08          	mov    %eax,0x8(%rsp)
  401d3a:	89 14 24             	mov    %edx,(%rsp)
  401d3d:	44 8b 05 24 34 20 00 	mov    0x203424(%rip),%r8d        # 605168 <target_id>
  401d44:	b9 ab 33 40 00       	mov    $0x4033ab,%ecx
  401d49:	ba 00 20 00 00       	mov    $0x2000,%edx
  401d4e:	be 01 00 00 00       	mov    $0x1,%esi
  401d53:	48 8d 7c 24 20       	lea    0x20(%rsp),%rdi
  401d58:	b8 00 00 00 00       	mov    $0x0,%eax
  401d5d:	e8 3e f1 ff ff       	callq  400ea0 <__sprintf_chk@plt>
  401d62:	83 3d 3f 37 20 00 00 	cmpl   $0x0,0x20373f(%rip)        # 6054a8 <notify>
  401d69:	0f 84 86 00 00 00    	je     401df5 <notify_server+0x153>
  401d6f:	85 db                	test   %ebx,%ebx
  401d71:	74 70                	je     401de3 <notify_server+0x141>
  401d73:	4c 8d 8c 24 20 20 00 	lea    0x2020(%rsp),%r9
  401d7a:	00 
  401d7b:	41 b8 00 00 00 00    	mov    $0x0,%r8d
  401d81:	48 8d 4c 24 20       	lea    0x20(%rsp),%rcx
  401d86:	48 8b 15 e3 33 20 00 	mov    0x2033e3(%rip),%rdx        # 605170 <lab>
  401d8d:	48 8b 35 e4 33 20 00 	mov    0x2033e4(%rip),%rsi        # 605178 <course>
  401d94:	48 8b 3d c5 33 20 00 	mov    0x2033c5(%rip),%rdi        # 605160 <user_id>
  401d9b:	e8 be 10 00 00       	callq  402e5e <driver_post>
  401da0:	85 c0                	test   %eax,%eax
  401da2:	79 26                	jns    401dca <notify_server+0x128>
  401da4:	48 8d 94 24 20 20 00 	lea    0x2020(%rsp),%rdx
  401dab:	00 
  401dac:	be c7 33 40 00       	mov    $0x4033c7,%esi
  401db1:	bf 01 00 00 00       	mov    $0x1,%edi
  401db6:	b8 00 00 00 00       	mov    $0x0,%eax
  401dbb:	e8 60 f0 ff ff       	callq  400e20 <__printf_chk@plt>
  401dc0:	bf 01 00 00 00       	mov    $0x1,%edi
  401dc5:	e8 a6 f0 ff ff       	callq  400e70 <exit@plt>
  401dca:	bf f0 34 40 00       	mov    $0x4034f0,%edi
  401dcf:	e8 0c ef ff ff       	callq  400ce0 <puts@plt>
  401dd4:	bf d3 33 40 00       	mov    $0x4033d3,%edi
  401dd9:	e8 02 ef ff ff       	callq  400ce0 <puts@plt>
  401dde:	e9 a2 00 00 00       	jmpq   401e85 <notify_server+0x1e3>
  401de3:	bf dd 33 40 00       	mov    $0x4033dd,%edi
  401de8:	e8 f3 ee ff ff       	callq  400ce0 <puts@plt>
  401ded:	0f 1f 00             	nopl   (%rax)
  401df0:	e9 90 00 00 00       	jmpq   401e85 <notify_server+0x1e3>
  401df5:	85 db                	test   %ebx,%ebx
  401df7:	74 09                	je     401e02 <notify_server+0x160>
  401df9:	ba a1 33 40 00       	mov    $0x4033a1,%edx
  401dfe:	66 90                	xchg   %ax,%ax
  401e00:	eb 05                	jmp    401e07 <notify_server+0x165>
  401e02:	ba a6 33 40 00       	mov    $0x4033a6,%edx
  401e07:	be 28 35 40 00       	mov    $0x403528,%esi
  401e0c:	bf 01 00 00 00       	mov    $0x1,%edi
  401e11:	b8 00 00 00 00       	mov    $0x0,%eax
  401e16:	e8 05 f0 ff ff       	callq  400e20 <__printf_chk@plt>
  401e1b:	48 8b 15 3e 33 20 00 	mov    0x20333e(%rip),%rdx        # 605160 <user_id>
  401e22:	be e4 33 40 00       	mov    $0x4033e4,%esi
  401e27:	bf 01 00 00 00       	mov    $0x1,%edi
  401e2c:	b8 00 00 00 00       	mov    $0x0,%eax
  401e31:	e8 ea ef ff ff       	callq  400e20 <__printf_chk@plt>
  401e36:	48 8b 15 3b 33 20 00 	mov    0x20333b(%rip),%rdx        # 605178 <course>
  401e3d:	be f1 33 40 00       	mov    $0x4033f1,%esi
  401e42:	bf 01 00 00 00       	mov    $0x1,%edi
  401e47:	b8 00 00 00 00       	mov    $0x0,%eax
  401e4c:	e8 cf ef ff ff       	callq  400e20 <__printf_chk@plt>
  401e51:	48 8b 15 18 33 20 00 	mov    0x203318(%rip),%rdx        # 605170 <lab>
  401e58:	be fd 33 40 00       	mov    $0x4033fd,%esi
  401e5d:	bf 01 00 00 00       	mov    $0x1,%edi
  401e62:	b8 00 00 00 00       	mov    $0x0,%eax
  401e67:	e8 b4 ef ff ff       	callq  400e20 <__printf_chk@plt>
  401e6c:	48 8d 54 24 20       	lea    0x20(%rsp),%rdx
  401e71:	be 06 34 40 00       	mov    $0x403406,%esi
  401e76:	bf 01 00 00 00       	mov    $0x1,%edi
  401e7b:	b8 00 00 00 00       	mov    $0x0,%eax
  401e80:	e8 9b ef ff ff       	callq  400e20 <__printf_chk@plt>
  401e85:	48 8b 84 24 28 40 00 	mov    0x4028(%rsp),%rax
  401e8c:	00 
  401e8d:	64 48 33 04 25 28 00 	xor    %fs:0x28,%rax
  401e94:	00 00 
  401e96:	74 05                	je     401e9d <notify_server+0x1fb>
  401e98:	e8 63 ee ff ff       	callq  400d00 <__stack_chk_fail@plt>
  401e9d:	48 81 c4 30 40 00 00 	add    $0x4030,%rsp
  401ea4:	5b                   	pop    %rbx
  401ea5:	c3                   	retq   

0000000000401ea6 <validate>:
  401ea6:	53                   	push   %rbx
  401ea7:	89 fb                	mov    %edi,%ebx
  401ea9:	83 3d 78 36 20 00 00 	cmpl   $0x0,0x203678(%rip)        # 605528 <is_checker>
  401eb0:	74 6b                	je     401f1d <validate+0x77>
  401eb2:	39 3d 64 36 20 00    	cmp    %edi,0x203664(%rip)        # 60551c <vlevel>
  401eb8:	74 14                	je     401ece <validate+0x28>
  401eba:	bf 12 34 40 00       	mov    $0x403412,%edi
  401ebf:	e8 1c ee ff ff       	callq  400ce0 <puts@plt>
  401ec4:	b8 00 00 00 00       	mov    $0x0,%eax
  401ec9:	e8 4d fd ff ff       	callq  401c1b <check_fail>
  401ece:	8b 15 44 36 20 00    	mov    0x203644(%rip),%edx        # 605518 <check_level>
  401ed4:	39 fa                	cmp    %edi,%edx
  401ed6:	74 20                	je     401ef8 <validate+0x52>
  401ed8:	89 f9                	mov    %edi,%ecx
  401eda:	be 50 35 40 00       	mov    $0x403550,%esi
  401edf:	bf 01 00 00 00       	mov    $0x1,%edi
  401ee4:	b8 00 00 00 00       	mov    $0x0,%eax
  401ee9:	e8 32 ef ff ff       	callq  400e20 <__printf_chk@plt>
  401eee:	b8 00 00 00 00       	mov    $0x0,%eax
  401ef3:	e8 23 fd ff ff       	callq  401c1b <check_fail>
  401ef8:	0f be 15 49 42 20 00 	movsbl 0x204249(%rip),%edx        # 606148 <target_prefix>
  401eff:	41 b8 40 55 60 00    	mov    $0x605540,%r8d
  401f05:	89 f9                	mov    %edi,%ecx
  401f07:	be 30 34 40 00       	mov    $0x403430,%esi
  401f0c:	bf 01 00 00 00       	mov    $0x1,%edi
  401f11:	b8 00 00 00 00       	mov    $0x0,%eax
  401f16:	e8 05 ef ff ff       	callq  400e20 <__printf_chk@plt>
  401f1b:	eb 49                	jmp    401f66 <validate+0xc0>
  401f1d:	39 3d f9 35 20 00    	cmp    %edi,0x2035f9(%rip)        # 60551c <vlevel>
  401f23:	74 18                	je     401f3d <validate+0x97>
  401f25:	bf 12 34 40 00       	mov    $0x403412,%edi
  401f2a:	e8 b1 ed ff ff       	callq  400ce0 <puts@plt>
  401f2f:	89 de                	mov    %ebx,%esi
  401f31:	bf 00 00 00 00       	mov    $0x0,%edi
  401f36:	e8 67 fd ff ff       	callq  401ca2 <notify_server>
  401f3b:	eb 29                	jmp    401f66 <validate+0xc0>
  401f3d:	0f be 0d 04 42 20 00 	movsbl 0x204204(%rip),%ecx        # 606148 <target_prefix>
  401f44:	89 fa                	mov    %edi,%edx
  401f46:	be 78 35 40 00       	mov    $0x403578,%esi
  401f4b:	bf 01 00 00 00       	mov    $0x1,%edi
  401f50:	b8 00 00 00 00       	mov    $0x0,%eax
  401f55:	e8 c6 ee ff ff       	callq  400e20 <__printf_chk@plt>
  401f5a:	89 de                	mov    %ebx,%esi
  401f5c:	bf 01 00 00 00       	mov    $0x1,%edi
  401f61:	e8 3c fd ff ff       	callq  401ca2 <notify_server>
  401f66:	5b                   	pop    %rbx
  401f67:	c3                   	retq   

0000000000401f68 <fail>:
  401f68:	48 83 ec 08          	sub    $0x8,%rsp
  401f6c:	83 3d b5 35 20 00 00 	cmpl   $0x0,0x2035b5(%rip)        # 605528 <is_checker>
  401f73:	74 0a                	je     401f7f <fail+0x17>
  401f75:	b8 00 00 00 00       	mov    $0x0,%eax
  401f7a:	e8 9c fc ff ff       	callq  401c1b <check_fail>
  401f7f:	89 fe                	mov    %edi,%esi
  401f81:	bf 00 00 00 00       	mov    $0x0,%edi
  401f86:	e8 17 fd ff ff       	callq  401ca2 <notify_server>
  401f8b:	48 83 c4 08          	add    $0x8,%rsp
  401f8f:	c3                   	retq   

0000000000401f90 <bushandler>:
  401f90:	48 83 ec 08          	sub    $0x8,%rsp
  401f94:	83 3d 8d 35 20 00 00 	cmpl   $0x0,0x20358d(%rip)        # 605528 <is_checker>
  401f9b:	74 14                	je     401fb1 <bushandler+0x21>
  401f9d:	bf 45 34 40 00       	mov    $0x403445,%edi
  401fa2:	e8 39 ed ff ff       	callq  400ce0 <puts@plt>
  401fa7:	b8 00 00 00 00       	mov    $0x0,%eax
  401fac:	e8 6a fc ff ff       	callq  401c1b <check_fail>
  401fb1:	bf b0 35 40 00       	mov    $0x4035b0,%edi
  401fb6:	e8 25 ed ff ff       	callq  400ce0 <puts@plt>
  401fbb:	bf 4f 34 40 00       	mov    $0x40344f,%edi
  401fc0:	e8 1b ed ff ff       	callq  400ce0 <puts@plt>
  401fc5:	be 00 00 00 00       	mov    $0x0,%esi
  401fca:	bf 00 00 00 00       	mov    $0x0,%edi
  401fcf:	e8 ce fc ff ff       	callq  401ca2 <notify_server>
  401fd4:	bf 01 00 00 00       	mov    $0x1,%edi
  401fd9:	e8 92 ee ff ff       	callq  400e70 <exit@plt>

0000000000401fde <seghandler>:
  401fde:	48 83 ec 08          	sub    $0x8,%rsp
  401fe2:	83 3d 3f 35 20 00 00 	cmpl   $0x0,0x20353f(%rip)        # 605528 <is_checker>
  401fe9:	74 14                	je     401fff <seghandler+0x21>
  401feb:	bf 65 34 40 00       	mov    $0x403465,%edi
  401ff0:	e8 eb ec ff ff       	callq  400ce0 <puts@plt>
  401ff5:	b8 00 00 00 00       	mov    $0x0,%eax
  401ffa:	e8 1c fc ff ff       	callq  401c1b <check_fail>
  401fff:	bf d0 35 40 00       	mov    $0x4035d0,%edi
  402004:	e8 d7 ec ff ff       	callq  400ce0 <puts@plt>
  402009:	bf 4f 34 40 00       	mov    $0x40344f,%edi
  40200e:	e8 cd ec ff ff       	callq  400ce0 <puts@plt>
  402013:	be 00 00 00 00       	mov    $0x0,%esi
  402018:	bf 00 00 00 00       	mov    $0x0,%edi
  40201d:	e8 80 fc ff ff       	callq  401ca2 <notify_server>
  402022:	bf 01 00 00 00       	mov    $0x1,%edi
  402027:	e8 44 ee ff ff       	callq  400e70 <exit@plt>

000000000040202c <illegalhandler>:
  40202c:	48 83 ec 08          	sub    $0x8,%rsp
  402030:	83 3d f1 34 20 00 00 	cmpl   $0x0,0x2034f1(%rip)        # 605528 <is_checker>
  402037:	74 14                	je     40204d <illegalhandler+0x21>
  402039:	bf 78 34 40 00       	mov    $0x403478,%edi
  40203e:	e8 9d ec ff ff       	callq  400ce0 <puts@plt>
  402043:	b8 00 00 00 00       	mov    $0x0,%eax
  402048:	e8 ce fb ff ff       	callq  401c1b <check_fail>
  40204d:	bf f8 35 40 00       	mov    $0x4035f8,%edi
  402052:	e8 89 ec ff ff       	callq  400ce0 <puts@plt>
  402057:	bf 4f 34 40 00       	mov    $0x40344f,%edi
  40205c:	e8 7f ec ff ff       	callq  400ce0 <puts@plt>
  402061:	be 00 00 00 00       	mov    $0x0,%esi
  402066:	bf 00 00 00 00       	mov    $0x0,%edi
  40206b:	e8 32 fc ff ff       	callq  401ca2 <notify_server>
  402070:	bf 01 00 00 00       	mov    $0x1,%edi
  402075:	e8 f6 ed ff ff       	callq  400e70 <exit@plt>

000000000040207a <sigalrmhandler>:
  40207a:	48 83 ec 08          	sub    $0x8,%rsp
  40207e:	83 3d a3 34 20 00 00 	cmpl   $0x0,0x2034a3(%rip)        # 605528 <is_checker>
  402085:	74 14                	je     40209b <sigalrmhandler+0x21>
  402087:	bf 8c 34 40 00       	mov    $0x40348c,%edi
  40208c:	e8 4f ec ff ff       	callq  400ce0 <puts@plt>
  402091:	b8 00 00 00 00       	mov    $0x0,%eax
  402096:	e8 80 fb ff ff       	callq  401c1b <check_fail>
  40209b:	ba 05 00 00 00       	mov    $0x5,%edx
  4020a0:	be 28 36 40 00       	mov    $0x403628,%esi
  4020a5:	bf 01 00 00 00       	mov    $0x1,%edi
  4020aa:	b8 00 00 00 00       	mov    $0x0,%eax
  4020af:	e8 6c ed ff ff       	callq  400e20 <__printf_chk@plt>
  4020b4:	be 00 00 00 00       	mov    $0x0,%esi
  4020b9:	bf 00 00 00 00       	mov    $0x0,%edi
  4020be:	e8 df fb ff ff       	callq  401ca2 <notify_server>
  4020c3:	bf 01 00 00 00       	mov    $0x1,%edi
  4020c8:	e8 a3 ed ff ff       	callq  400e70 <exit@plt>

00000000004020cd <launch>:
  4020cd:	55                   	push   %rbp
  4020ce:	48 89 e5             	mov    %rsp,%rbp
  4020d1:	48 83 ec 10          	sub    $0x10,%rsp
  4020d5:	48 89 fa             	mov    %rdi,%rdx
  4020d8:	64 48 8b 04 25 28 00 	mov    %fs:0x28,%rax
  4020df:	00 00 
  4020e1:	48 89 45 f8          	mov    %rax,-0x8(%rbp)
  4020e5:	31 c0                	xor    %eax,%eax
  4020e7:	48 8d 47 1e          	lea    0x1e(%rdi),%rax
  4020eb:	48 83 e0 f0          	and    $0xfffffffffffffff0,%rax
  4020ef:	48 29 c4             	sub    %rax,%rsp
  4020f2:	48 8d 7c 24 0f       	lea    0xf(%rsp),%rdi
  4020f7:	48 83 e7 f0          	and    $0xfffffffffffffff0,%rdi
  4020fb:	be f4 00 00 00       	mov    $0xf4,%esi
  402100:	e8 1b ec ff ff       	callq  400d20 <memset@plt>
  402105:	48 8b 05 b4 33 20 00 	mov    0x2033b4(%rip),%rax        # 6054c0 <stdin@@GLIBC_2.2.5>
  40210c:	48 39 05 fd 33 20 00 	cmp    %rax,0x2033fd(%rip)        # 605510 <infile>
  402113:	75 14                	jne    402129 <launch+0x5c>
  402115:	be 94 34 40 00       	mov    $0x403494,%esi
  40211a:	bf 01 00 00 00       	mov    $0x1,%edi
  40211f:	b8 00 00 00 00       	mov    $0x0,%eax
  402124:	e8 f7 ec ff ff       	callq  400e20 <__printf_chk@plt>
  402129:	c7 05 e9 33 20 00 00 	movl   $0x0,0x2033e9(%rip)        # 60551c <vlevel>
  402130:	00 00 00 
  402133:	b8 00 00 00 00       	mov    $0x0,%eax
  402138:	e8 23 f9 ff ff       	callq  401a60 <test>
  40213d:	83 3d e4 33 20 00 00 	cmpl   $0x0,0x2033e4(%rip)        # 605528 <is_checker>
  402144:	74 14                	je     40215a <launch+0x8d>
  402146:	bf a1 34 40 00       	mov    $0x4034a1,%edi
  40214b:	e8 90 eb ff ff       	callq  400ce0 <puts@plt>
  402150:	b8 00 00 00 00       	mov    $0x0,%eax
  402155:	e8 c1 fa ff ff       	callq  401c1b <check_fail>
  40215a:	bf ac 34 40 00       	mov    $0x4034ac,%edi
  40215f:	e8 7c eb ff ff       	callq  400ce0 <puts@plt>
  402164:	48 8b 45 f8          	mov    -0x8(%rbp),%rax
  402168:	64 48 33 04 25 28 00 	xor    %fs:0x28,%rax
  40216f:	00 00 
  402171:	74 05                	je     402178 <launch+0xab>
  402173:	e8 88 eb ff ff       	callq  400d00 <__stack_chk_fail@plt>
  402178:	c9                   	leaveq 
  402179:	c3                   	retq   

000000000040217a <stable_launch>:
  40217a:	53                   	push   %rbx
  40217b:	48 89 3d 86 33 20 00 	mov    %rdi,0x203386(%rip)        # 605508 <global_offset>
  402182:	41 b9 00 00 00 00    	mov    $0x0,%r9d
  402188:	41 b8 00 00 00 00    	mov    $0x0,%r8d
  40218e:	b9 32 01 00 00       	mov    $0x132,%ecx
  402193:	ba 07 00 00 00       	mov    $0x7,%edx
  402198:	be 00 00 10 00       	mov    $0x100000,%esi
  40219d:	bf 00 60 58 55       	mov    $0x55586000,%edi
  4021a2:	e8 69 eb ff ff       	callq  400d10 <mmap@plt>
  4021a7:	48 89 c3             	mov    %rax,%rbx
  4021aa:	48 3d 00 60 58 55    	cmp    $0x55586000,%rax
  4021b0:	74 37                	je     4021e9 <stable_launch+0x6f>
  4021b2:	be 00 00 10 00       	mov    $0x100000,%esi
  4021b7:	48 89 c7             	mov    %rax,%rdi
  4021ba:	e8 51 ec ff ff       	callq  400e10 <munmap@plt>
  4021bf:	b9 00 60 58 55       	mov    $0x55586000,%ecx
  4021c4:	ba 60 36 40 00       	mov    $0x403660,%edx
  4021c9:	be 01 00 00 00       	mov    $0x1,%esi
  4021ce:	48 8b 3d 13 33 20 00 	mov    0x203313(%rip),%rdi        # 6054e8 <stderr@@GLIBC_2.2.5>
  4021d5:	b8 00 00 00 00       	mov    $0x0,%eax
  4021da:	e8 b1 ec ff ff       	callq  400e90 <__fprintf_chk@plt>
  4021df:	bf 01 00 00 00       	mov    $0x1,%edi
  4021e4:	e8 87 ec ff ff       	callq  400e70 <exit@plt>
  4021e9:	48 8d 90 f8 ff 0f 00 	lea    0xffff8(%rax),%rdx
  4021f0:	48 89 15 59 3f 20 00 	mov    %rdx,0x203f59(%rip)        # 606150 <stack_top>
  4021f7:	48 89 e0             	mov    %rsp,%rax
  4021fa:	48 89 d4             	mov    %rdx,%rsp
  4021fd:	48 89 c2             	mov    %rax,%rdx
  402200:	48 89 15 f9 32 20 00 	mov    %rdx,0x2032f9(%rip)        # 605500 <global_save_stack>
  402207:	48 8b 3d fa 32 20 00 	mov    0x2032fa(%rip),%rdi        # 605508 <global_offset>
  40220e:	e8 ba fe ff ff       	callq  4020cd <launch>
  402213:	48 8b 05 e6 32 20 00 	mov    0x2032e6(%rip),%rax        # 605500 <global_save_stack>
  40221a:	48 89 c4             	mov    %rax,%rsp
  40221d:	be 00 00 10 00       	mov    $0x100000,%esi
  402222:	48 89 df             	mov    %rbx,%rdi
  402225:	e8 e6 eb ff ff       	callq  400e10 <munmap@plt>
  40222a:	5b                   	pop    %rbx
  40222b:	c3                   	retq   
  40222c:	0f 1f 40 00          	nopl   0x0(%rax)

0000000000402230 <rio_readinitb>:
  402230:	89 37                	mov    %esi,(%rdi)
  402232:	c7 47 04 00 00 00 00 	movl   $0x0,0x4(%rdi)
  402239:	48 8d 47 10          	lea    0x10(%rdi),%rax
  40223d:	48 89 47 08          	mov    %rax,0x8(%rdi)
  402241:	c3                   	retq   

0000000000402242 <sigalrm_handler>:
  402242:	48 83 ec 08          	sub    $0x8,%rsp
  402246:	b9 00 00 00 00       	mov    $0x0,%ecx
  40224b:	ba a0 36 40 00       	mov    $0x4036a0,%edx
  402250:	be 01 00 00 00       	mov    $0x1,%esi
  402255:	48 8b 3d 8c 32 20 00 	mov    0x20328c(%rip),%rdi        # 6054e8 <stderr@@GLIBC_2.2.5>
  40225c:	b8 00 00 00 00       	mov    $0x0,%eax
  402261:	e8 2a ec ff ff       	callq  400e90 <__fprintf_chk@plt>
  402266:	bf 01 00 00 00       	mov    $0x1,%edi
  40226b:	e8 00 ec ff ff       	callq  400e70 <exit@plt>

0000000000402270 <rio_writen>:
  402270:	41 55                	push   %r13
  402272:	41 54                	push   %r12
  402274:	55                   	push   %rbp
  402275:	53                   	push   %rbx
  402276:	48 83 ec 08          	sub    $0x8,%rsp
  40227a:	41 89 fc             	mov    %edi,%r12d
  40227d:	48 89 f5             	mov    %rsi,%rbp
  402280:	49 89 d5             	mov    %rdx,%r13
  402283:	48 89 d3             	mov    %rdx,%rbx
  402286:	eb 28                	jmp    4022b0 <rio_writen+0x40>
  402288:	48 89 da             	mov    %rbx,%rdx
  40228b:	48 89 ee             	mov    %rbp,%rsi
  40228e:	44 89 e7             	mov    %r12d,%edi
  402291:	e8 5a ea ff ff       	callq  400cf0 <write@plt>
  402296:	48 85 c0             	test   %rax,%rax
  402299:	7f 0f                	jg     4022aa <rio_writen+0x3a>
  40229b:	e8 00 ea ff ff       	callq  400ca0 <__errno_location@plt>
  4022a0:	83 38 04             	cmpl   $0x4,(%rax)
  4022a3:	75 15                	jne    4022ba <rio_writen+0x4a>
  4022a5:	b8 00 00 00 00       	mov    $0x0,%eax
  4022aa:	48 29 c3             	sub    %rax,%rbx
  4022ad:	48 01 c5             	add    %rax,%rbp
  4022b0:	48 85 db             	test   %rbx,%rbx
  4022b3:	75 d3                	jne    402288 <rio_writen+0x18>
  4022b5:	4c 89 e8             	mov    %r13,%rax
  4022b8:	eb 07                	jmp    4022c1 <rio_writen+0x51>
  4022ba:	48 c7 c0 ff ff ff ff 	mov    $0xffffffffffffffff,%rax
  4022c1:	48 83 c4 08          	add    $0x8,%rsp
  4022c5:	5b                   	pop    %rbx
  4022c6:	5d                   	pop    %rbp
  4022c7:	41 5c                	pop    %r12
  4022c9:	41 5d                	pop    %r13
  4022cb:	c3                   	retq   

00000000004022cc <rio_read>:
  4022cc:	41 56                	push   %r14
  4022ce:	41 55                	push   %r13
  4022d0:	41 54                	push   %r12
  4022d2:	55                   	push   %rbp
  4022d3:	53                   	push   %rbx
  4022d4:	48 89 fb             	mov    %rdi,%rbx
  4022d7:	49 89 f6             	mov    %rsi,%r14
  4022da:	49 89 d5             	mov    %rdx,%r13
  4022dd:	4c 8d 67 10          	lea    0x10(%rdi),%r12
  4022e1:	eb 2a                	jmp    40230d <rio_read+0x41>
  4022e3:	8b 3b                	mov    (%rbx),%edi
  4022e5:	ba 00 20 00 00       	mov    $0x2000,%edx
  4022ea:	4c 89 e6             	mov    %r12,%rsi
  4022ed:	e8 5e ea ff ff       	callq  400d50 <read@plt>
  4022f2:	89 43 04             	mov    %eax,0x4(%rbx)
  4022f5:	85 c0                	test   %eax,%eax
  4022f7:	79 0c                	jns    402305 <rio_read+0x39>
  4022f9:	e8 a2 e9 ff ff       	callq  400ca0 <__errno_location@plt>
  4022fe:	83 38 04             	cmpl   $0x4,(%rax)
  402301:	74 0a                	je     40230d <rio_read+0x41>
  402303:	eb 37                	jmp    40233c <rio_read+0x70>
  402305:	85 c0                	test   %eax,%eax
  402307:	74 3c                	je     402345 <rio_read+0x79>
  402309:	4c 89 63 08          	mov    %r12,0x8(%rbx)
  40230d:	8b 6b 04             	mov    0x4(%rbx),%ebp
  402310:	85 ed                	test   %ebp,%ebp
  402312:	7e cf                	jle    4022e3 <rio_read+0x17>
  402314:	89 e8                	mov    %ebp,%eax
  402316:	4c 39 e8             	cmp    %r13,%rax
  402319:	72 03                	jb     40231e <rio_read+0x52>
  40231b:	44 89 ed             	mov    %r13d,%ebp
  40231e:	4c 63 e5             	movslq %ebp,%r12
  402321:	48 8b 73 08          	mov    0x8(%rbx),%rsi
  402325:	4c 89 e2             	mov    %r12,%rdx
  402328:	4c 89 f7             	mov    %r14,%rdi
  40232b:	e8 90 ea ff ff       	callq  400dc0 <memcpy@plt>
  402330:	4c 01 63 08          	add    %r12,0x8(%rbx)
  402334:	29 6b 04             	sub    %ebp,0x4(%rbx)
  402337:	4c 89 e0             	mov    %r12,%rax
  40233a:	eb 0e                	jmp    40234a <rio_read+0x7e>
  40233c:	48 c7 c0 ff ff ff ff 	mov    $0xffffffffffffffff,%rax
  402343:	eb 05                	jmp    40234a <rio_read+0x7e>
  402345:	b8 00 00 00 00       	mov    $0x0,%eax
  40234a:	5b                   	pop    %rbx
  40234b:	5d                   	pop    %rbp
  40234c:	41 5c                	pop    %r12
  40234e:	41 5d                	pop    %r13
  402350:	41 5e                	pop    %r14
  402352:	c3                   	retq   

0000000000402353 <rio_readlineb>:
  402353:	41 55                	push   %r13
  402355:	41 54                	push   %r12
  402357:	55                   	push   %rbp
  402358:	53                   	push   %rbx
  402359:	48 83 ec 18          	sub    $0x18,%rsp
  40235d:	49 89 fd             	mov    %rdi,%r13
  402360:	48 89 f5             	mov    %rsi,%rbp
  402363:	49 89 d4             	mov    %rdx,%r12
  402366:	bb 01 00 00 00       	mov    $0x1,%ebx
  40236b:	eb 3e                	jmp    4023ab <rio_readlineb+0x58>
  40236d:	ba 01 00 00 00       	mov    $0x1,%edx
  402372:	48 8d 74 24 0f       	lea    0xf(%rsp),%rsi
  402377:	4c 89 ef             	mov    %r13,%rdi
  40237a:	e8 4d ff ff ff       	callq  4022cc <rio_read>
  40237f:	83 f8 01             	cmp    $0x1,%eax
  402382:	75 12                	jne    402396 <rio_readlineb+0x43>
  402384:	48 8d 55 01          	lea    0x1(%rbp),%rdx
  402388:	0f b6 44 24 0f       	movzbl 0xf(%rsp),%eax
  40238d:	88 45 00             	mov    %al,0x0(%rbp)
  402390:	3c 0a                	cmp    $0xa,%al
  402392:	75 10                	jne    4023a4 <rio_readlineb+0x51>
  402394:	eb 1c                	jmp    4023b2 <rio_readlineb+0x5f>
  402396:	85 c0                	test   %eax,%eax
  402398:	75 24                	jne    4023be <rio_readlineb+0x6b>
  40239a:	48 83 fb 01          	cmp    $0x1,%rbx
  40239e:	66 90                	xchg   %ax,%ax
  4023a0:	75 13                	jne    4023b5 <rio_readlineb+0x62>
  4023a2:	eb 23                	jmp    4023c7 <rio_readlineb+0x74>
  4023a4:	48 83 c3 01          	add    $0x1,%rbx
  4023a8:	48 89 d5             	mov    %rdx,%rbp
  4023ab:	4c 39 e3             	cmp    %r12,%rbx
  4023ae:	72 bd                	jb     40236d <rio_readlineb+0x1a>
  4023b0:	eb 03                	jmp    4023b5 <rio_readlineb+0x62>
  4023b2:	48 89 d5             	mov    %rdx,%rbp
  4023b5:	c6 45 00 00          	movb   $0x0,0x0(%rbp)
  4023b9:	48 89 d8             	mov    %rbx,%rax
  4023bc:	eb 0e                	jmp    4023cc <rio_readlineb+0x79>
  4023be:	48 c7 c0 ff ff ff ff 	mov    $0xffffffffffffffff,%rax
  4023c5:	eb 05                	jmp    4023cc <rio_readlineb+0x79>
  4023c7:	b8 00 00 00 00       	mov    $0x0,%eax
  4023cc:	48 83 c4 18          	add    $0x18,%rsp
  4023d0:	5b                   	pop    %rbx
  4023d1:	5d                   	pop    %rbp
  4023d2:	41 5c                	pop    %r12
  4023d4:	41 5d                	pop    %r13
  4023d6:	c3                   	retq   

00000000004023d7 <urlencode>:
  4023d7:	41 54                	push   %r12
  4023d9:	55                   	push   %rbp
  4023da:	53                   	push   %rbx
  4023db:	48 83 ec 10          	sub    $0x10,%rsp
  4023df:	48 89 fb             	mov    %rdi,%rbx
  4023e2:	48 89 f5             	mov    %rsi,%rbp
  4023e5:	64 48 8b 04 25 28 00 	mov    %fs:0x28,%rax
  4023ec:	00 00 
  4023ee:	48 89 44 24 08       	mov    %rax,0x8(%rsp)
  4023f3:	31 c0                	xor    %eax,%eax
  4023f5:	48 c7 c1 ff ff ff ff 	mov    $0xffffffffffffffff,%rcx
  4023fc:	f2 ae                	repnz scas %es:(%rdi),%al
  4023fe:	48 f7 d1             	not    %rcx
  402401:	8d 41 ff             	lea    -0x1(%rcx),%eax
  402404:	e9 aa 00 00 00       	jmpq   4024b3 <urlencode+0xdc>
  402409:	44 0f b6 03          	movzbl (%rbx),%r8d
  40240d:	41 80 f8 2a          	cmp    $0x2a,%r8b
  402411:	0f 94 c2             	sete   %dl
  402414:	41 80 f8 2d          	cmp    $0x2d,%r8b
  402418:	0f 94 c0             	sete   %al
  40241b:	08 c2                	or     %al,%dl
  40241d:	75 24                	jne    402443 <urlencode+0x6c>
  40241f:	41 80 f8 2e          	cmp    $0x2e,%r8b
  402423:	74 1e                	je     402443 <urlencode+0x6c>
  402425:	41 80 f8 5f          	cmp    $0x5f,%r8b
  402429:	74 18                	je     402443 <urlencode+0x6c>
  40242b:	41 8d 40 d0          	lea    -0x30(%r8),%eax
  40242f:	3c 09                	cmp    $0x9,%al
  402431:	76 10                	jbe    402443 <urlencode+0x6c>
  402433:	41 8d 40 bf          	lea    -0x41(%r8),%eax
  402437:	3c 19                	cmp    $0x19,%al
  402439:	76 08                	jbe    402443 <urlencode+0x6c>
  40243b:	41 8d 40 9f          	lea    -0x61(%r8),%eax
  40243f:	3c 19                	cmp    $0x19,%al
  402441:	77 0a                	ja     40244d <urlencode+0x76>
  402443:	44 88 45 00          	mov    %r8b,0x0(%rbp)
  402447:	48 8d 6d 01          	lea    0x1(%rbp),%rbp
  40244b:	eb 5f                	jmp    4024ac <urlencode+0xd5>
  40244d:	41 80 f8 20          	cmp    $0x20,%r8b
  402451:	75 0a                	jne    40245d <urlencode+0x86>
  402453:	c6 45 00 2b          	movb   $0x2b,0x0(%rbp)
  402457:	48 8d 6d 01          	lea    0x1(%rbp),%rbp
  40245b:	eb 4f                	jmp    4024ac <urlencode+0xd5>
  40245d:	41 8d 40 e0          	lea    -0x20(%r8),%eax
  402461:	3c 5f                	cmp    $0x5f,%al
  402463:	0f 96 c2             	setbe  %dl
  402466:	41 80 f8 09          	cmp    $0x9,%r8b
  40246a:	0f 94 c0             	sete   %al
  40246d:	08 c2                	or     %al,%dl
  40246f:	74 50                	je     4024c1 <urlencode+0xea>
  402471:	45 0f b6 c0          	movzbl %r8b,%r8d
  402475:	b9 38 37 40 00       	mov    $0x403738,%ecx
  40247a:	ba 08 00 00 00       	mov    $0x8,%edx
  40247f:	be 01 00 00 00       	mov    $0x1,%esi
  402484:	48 89 e7             	mov    %rsp,%rdi
  402487:	b8 00 00 00 00       	mov    $0x0,%eax
  40248c:	e8 0f ea ff ff       	callq  400ea0 <__sprintf_chk@plt>
  402491:	0f b6 04 24          	movzbl (%rsp),%eax
  402495:	88 45 00             	mov    %al,0x0(%rbp)
  402498:	0f b6 44 24 01       	movzbl 0x1(%rsp),%eax
  40249d:	88 45 01             	mov    %al,0x1(%rbp)
  4024a0:	0f b6 44 24 02       	movzbl 0x2(%rsp),%eax
  4024a5:	88 45 02             	mov    %al,0x2(%rbp)
  4024a8:	48 8d 6d 03          	lea    0x3(%rbp),%rbp
  4024ac:	48 83 c3 01          	add    $0x1,%rbx
  4024b0:	44 89 e0             	mov    %r12d,%eax
  4024b3:	44 8d 60 ff          	lea    -0x1(%rax),%r12d
  4024b7:	85 c0                	test   %eax,%eax
  4024b9:	0f 85 4a ff ff ff    	jne    402409 <urlencode+0x32>
  4024bf:	eb 05                	jmp    4024c6 <urlencode+0xef>
  4024c1:	b8 ff ff ff ff       	mov    $0xffffffff,%eax
  4024c6:	48 8b 74 24 08       	mov    0x8(%rsp),%rsi
  4024cb:	64 48 33 34 25 28 00 	xor    %fs:0x28,%rsi
  4024d2:	00 00 
  4024d4:	74 05                	je     4024db <urlencode+0x104>
  4024d6:	e8 25 e8 ff ff       	callq  400d00 <__stack_chk_fail@plt>
  4024db:	48 83 c4 10          	add    $0x10,%rsp
  4024df:	5b                   	pop    %rbx
  4024e0:	5d                   	pop    %rbp
  4024e1:	41 5c                	pop    %r12
  4024e3:	c3                   	retq   

00000000004024e4 <submitr>:
  4024e4:	41 57                	push   %r15
  4024e6:	41 56                	push   %r14
  4024e8:	41 55                	push   %r13
  4024ea:	41 54                	push   %r12
  4024ec:	55                   	push   %rbp
  4024ed:	53                   	push   %rbx
  4024ee:	48 81 ec 68 a0 00 00 	sub    $0xa068,%rsp
  4024f5:	49 89 fc             	mov    %rdi,%r12
  4024f8:	89 74 24 14          	mov    %esi,0x14(%rsp)
  4024fc:	49 89 d7             	mov    %rdx,%r15
  4024ff:	49 89 ce             	mov    %rcx,%r14
  402502:	4c 89 44 24 18       	mov    %r8,0x18(%rsp)
  402507:	4d 89 cd             	mov    %r9,%r13
  40250a:	48 8b 9c 24 a0 a0 00 	mov    0xa0a0(%rsp),%rbx
  402511:	00 
  402512:	64 48 8b 04 25 28 00 	mov    %fs:0x28,%rax
  402519:	00 00 
  40251b:	48 89 84 24 58 a0 00 	mov    %rax,0xa058(%rsp)
  402522:	00 
  402523:	31 c0                	xor    %eax,%eax
  402525:	c7 44 24 2c 00 00 00 	movl   $0x0,0x2c(%rsp)
  40252c:	00 
  40252d:	ba 00 00 00 00       	mov    $0x0,%edx
  402532:	be 01 00 00 00       	mov    $0x1,%esi
  402537:	bf 02 00 00 00       	mov    $0x2,%edi
  40253c:	e8 6f e9 ff ff       	callq  400eb0 <socket@plt>
  402541:	89 c5                	mov    %eax,%ebp
  402543:	85 c0                	test   %eax,%eax
  402545:	79 4e                	jns    402595 <submitr+0xb1>
  402547:	48 b8 45 72 72 6f 72 	movabs $0x43203a726f727245,%rax
  40254e:	3a 20 43 
  402551:	48 89 03             	mov    %rax,(%rbx)
  402554:	48 b8 6c 69 65 6e 74 	movabs $0x6e7520746e65696c,%rax
  40255b:	20 75 6e 
  40255e:	48 89 43 08          	mov    %rax,0x8(%rbx)
  402562:	48 b8 61 62 6c 65 20 	movabs $0x206f7420656c6261,%rax
  402569:	74 6f 20 
  40256c:	48 89 43 10          	mov    %rax,0x10(%rbx)
  402570:	48 b8 63 72 65 61 74 	movabs $0x7320657461657263,%rax
  402577:	65 20 73 
  40257a:	48 89 43 18          	mov    %rax,0x18(%rbx)
  40257e:	c7 43 20 6f 63 6b 65 	movl   $0x656b636f,0x20(%rbx)
  402585:	66 c7 43 24 74 00    	movw   $0x74,0x24(%rbx)
  40258b:	b8 ff ff ff ff       	mov    $0xffffffff,%eax
  402590:	e9 84 06 00 00       	jmpq   402c19 <submitr+0x735>
  402595:	4c 89 e7             	mov    %r12,%rdi
  402598:	e8 e3 e7 ff ff       	callq  400d80 <gethostbyname@plt>
  40259d:	48 85 c0             	test   %rax,%rax
  4025a0:	75 67                	jne    402609 <submitr+0x125>
  4025a2:	48 b8 45 72 72 6f 72 	movabs $0x44203a726f727245,%rax
  4025a9:	3a 20 44 
  4025ac:	48 89 03             	mov    %rax,(%rbx)
  4025af:	48 b8 4e 53 20 69 73 	movabs $0x6e7520736920534e,%rax
  4025b6:	20 75 6e 
  4025b9:	48 89 43 08          	mov    %rax,0x8(%rbx)
  4025bd:	48 b8 61 62 6c 65 20 	movabs $0x206f7420656c6261,%rax
  4025c4:	74 6f 20 
  4025c7:	48 89 43 10          	mov    %rax,0x10(%rbx)
  4025cb:	48 b8 72 65 73 6f 6c 	movabs $0x2065766c6f736572,%rax
  4025d2:	76 65 20 
  4025d5:	48 89 43 18          	mov    %rax,0x18(%rbx)
  4025d9:	48 b8 73 65 72 76 65 	movabs $0x6120726576726573,%rax
  4025e0:	72 20 61 
  4025e3:	48 89 43 20          	mov    %rax,0x20(%rbx)
  4025e7:	c7 43 28 64 64 72 65 	movl   $0x65726464,0x28(%rbx)
  4025ee:	66 c7 43 2c 73 73    	movw   $0x7373,0x2c(%rbx)
  4025f4:	c6 43 2e 00          	movb   $0x0,0x2e(%rbx)
  4025f8:	89 ef                	mov    %ebp,%edi
  4025fa:	e8 41 e7 ff ff       	callq  400d40 <close@plt>
  4025ff:	b8 ff ff ff ff       	mov    $0xffffffff,%eax
  402604:	e9 10 06 00 00       	jmpq   402c19 <submitr+0x735>
  402609:	48 c7 44 24 30 00 00 	movq   $0x0,0x30(%rsp)
  402610:	00 00 
  402612:	48 c7 44 24 38 00 00 	movq   $0x0,0x38(%rsp)
  402619:	00 00 
  40261b:	66 c7 44 24 30 02 00 	movw   $0x2,0x30(%rsp)
  402622:	48 63 50 14          	movslq 0x14(%rax),%rdx
  402626:	48 8b 40 18          	mov    0x18(%rax),%rax
  40262a:	48 8b 30             	mov    (%rax),%rsi
  40262d:	48 8d 7c 24 34       	lea    0x34(%rsp),%rdi
  402632:	b9 0c 00 00 00       	mov    $0xc,%ecx
  402637:	e8 54 e7 ff ff       	callq  400d90 <__memmove_chk@plt>
  40263c:	0f b7 44 24 14       	movzwl 0x14(%rsp),%eax
  402641:	66 c1 c8 08          	ror    $0x8,%ax
  402645:	66 89 44 24 32       	mov    %ax,0x32(%rsp)
  40264a:	ba 10 00 00 00       	mov    $0x10,%edx
  40264f:	48 8d 74 24 30       	lea    0x30(%rsp),%rsi
  402654:	89 ef                	mov    %ebp,%edi
  402656:	e8 25 e8 ff ff       	callq  400e80 <connect@plt>
  40265b:	85 c0                	test   %eax,%eax
  40265d:	79 59                	jns    4026b8 <submitr+0x1d4>
  40265f:	48 b8 45 72 72 6f 72 	movabs $0x55203a726f727245,%rax
  402666:	3a 20 55 
  402669:	48 89 03             	mov    %rax,(%rbx)
  40266c:	48 b8 6e 61 62 6c 65 	movabs $0x6f7420656c62616e,%rax
  402673:	20 74 6f 
  402676:	48 89 43 08          	mov    %rax,0x8(%rbx)
  40267a:	48 b8 20 63 6f 6e 6e 	movabs $0x7463656e6e6f6320,%rax
  402681:	65 63 74 
  402684:	48 89 43 10          	mov    %rax,0x10(%rbx)
  402688:	48 b8 20 74 6f 20 74 	movabs $0x20656874206f7420,%rax
  40268f:	68 65 20 
  402692:	48 89 43 18          	mov    %rax,0x18(%rbx)
  402696:	c7 43 20 73 65 72 76 	movl   $0x76726573,0x20(%rbx)
  40269d:	66 c7 43 24 65 72    	movw   $0x7265,0x24(%rbx)
  4026a3:	c6 43 26 00          	movb   $0x0,0x26(%rbx)
  4026a7:	89 ef                	mov    %ebp,%edi
  4026a9:	e8 92 e6 ff ff       	callq  400d40 <close@plt>
  4026ae:	b8 ff ff ff ff       	mov    $0xffffffff,%eax
  4026b3:	e9 61 05 00 00       	jmpq   402c19 <submitr+0x735>
  4026b8:	48 c7 c2 ff ff ff ff 	mov    $0xffffffffffffffff,%rdx
  4026bf:	4c 89 ef             	mov    %r13,%rdi
  4026c2:	b8 00 00 00 00       	mov    $0x0,%eax
  4026c7:	48 89 d1             	mov    %rdx,%rcx
  4026ca:	f2 ae                	repnz scas %es:(%rdi),%al
  4026cc:	48 f7 d1             	not    %rcx
  4026cf:	48 89 ce             	mov    %rcx,%rsi
  4026d2:	4c 89 ff             	mov    %r15,%rdi
  4026d5:	48 89 d1             	mov    %rdx,%rcx
  4026d8:	f2 ae                	repnz scas %es:(%rdi),%al
  4026da:	48 f7 d1             	not    %rcx
  4026dd:	49 89 c8             	mov    %rcx,%r8
  4026e0:	4c 89 f7             	mov    %r14,%rdi
  4026e3:	48 89 d1             	mov    %rdx,%rcx
  4026e6:	f2 ae                	repnz scas %es:(%rdi),%al
  4026e8:	49 29 c8             	sub    %rcx,%r8
  4026eb:	48 8b 7c 24 18       	mov    0x18(%rsp),%rdi
  4026f0:	48 89 d1             	mov    %rdx,%rcx
  4026f3:	f2 ae                	repnz scas %es:(%rdi),%al
  4026f5:	49 29 c8             	sub    %rcx,%r8
  4026f8:	48 8d 44 76 fd       	lea    -0x3(%rsi,%rsi,2),%rax
  4026fd:	49 8d 44 00 7b       	lea    0x7b(%r8,%rax,1),%rax
  402702:	48 3d 00 20 00 00    	cmp    $0x2000,%rax
  402708:	76 72                	jbe    40277c <submitr+0x298>
  40270a:	48 b8 45 72 72 6f 72 	movabs $0x52203a726f727245,%rax
  402711:	3a 20 52 
  402714:	48 89 03             	mov    %rax,(%rbx)
  402717:	48 b8 65 73 75 6c 74 	movabs $0x747320746c757365,%rax
  40271e:	20 73 74 
  402721:	48 89 43 08          	mov    %rax,0x8(%rbx)
  402725:	48 b8 72 69 6e 67 20 	movabs $0x6f6f7420676e6972,%rax
  40272c:	74 6f 6f 
  40272f:	48 89 43 10          	mov    %rax,0x10(%rbx)
  402733:	48 b8 20 6c 61 72 67 	movabs $0x202e656772616c20,%rax
  40273a:	65 2e 20 
  40273d:	48 89 43 18          	mov    %rax,0x18(%rbx)
  402741:	48 b8 49 6e 63 72 65 	movabs $0x6573616572636e49,%rax
  402748:	61 73 65 
  40274b:	48 89 43 20          	mov    %rax,0x20(%rbx)
  40274f:	48 b8 20 53 55 42 4d 	movabs $0x5254494d42555320,%rax
  402756:	49 54 52 
  402759:	48 89 43 28          	mov    %rax,0x28(%rbx)
  40275d:	48 b8 5f 4d 41 58 42 	movabs $0x46554258414d5f,%rax
  402764:	55 46 00 
  402767:	48 89 43 30          	mov    %rax,0x30(%rbx)
  40276b:	89 ef                	mov    %ebp,%edi
  40276d:	e8 ce e5 ff ff       	callq  400d40 <close@plt>
  402772:	b8 ff ff ff ff       	mov    $0xffffffff,%eax
  402777:	e9 9d 04 00 00       	jmpq   402c19 <submitr+0x735>
  40277c:	48 8d b4 24 40 20 00 	lea    0x2040(%rsp),%rsi
  402783:	00 
  402784:	b9 00 04 00 00       	mov    $0x400,%ecx
  402789:	b8 00 00 00 00       	mov    $0x0,%eax
  40278e:	48 89 f7             	mov    %rsi,%rdi
  402791:	f3 48 ab             	rep stos %rax,%es:(%rdi)
  402794:	4c 89 ef             	mov    %r13,%rdi
  402797:	e8 3b fc ff ff       	callq  4023d7 <urlencode>
  40279c:	85 c0                	test   %eax,%eax
  40279e:	0f 89 8a 00 00 00    	jns    40282e <submitr+0x34a>
  4027a4:	48 b8 45 72 72 6f 72 	movabs $0x52203a726f727245,%rax
  4027ab:	3a 20 52 
  4027ae:	48 89 03             	mov    %rax,(%rbx)
  4027b1:	48 b8 65 73 75 6c 74 	movabs $0x747320746c757365,%rax
  4027b8:	20 73 74 
  4027bb:	48 89 43 08          	mov    %rax,0x8(%rbx)
  4027bf:	48 b8 72 69 6e 67 20 	movabs $0x6e6f6320676e6972,%rax
  4027c6:	63 6f 6e 
  4027c9:	48 89 43 10          	mov    %rax,0x10(%rbx)
  4027cd:	48 b8 74 61 69 6e 73 	movabs $0x6e6120736e696174,%rax
  4027d4:	20 61 6e 
  4027d7:	48 89 43 18          	mov    %rax,0x18(%rbx)
  4027db:	48 b8 20 69 6c 6c 65 	movabs $0x6c6167656c6c6920,%rax
  4027e2:	67 61 6c 
  4027e5:	48 89 43 20          	mov    %rax,0x20(%rbx)
  4027e9:	48 b8 20 6f 72 20 75 	movabs $0x72706e7520726f20,%rax
  4027f0:	6e 70 72 
  4027f3:	48 89 43 28          	mov    %rax,0x28(%rbx)
  4027f7:	48 b8 69 6e 74 61 62 	movabs $0x20656c6261746e69,%rax
  4027fe:	6c 65 20 
  402801:	48 89 43 30          	mov    %rax,0x30(%rbx)
  402805:	48 b8 63 68 61 72 61 	movabs $0x6574636172616863,%rax
  40280c:	63 74 65 
  40280f:	48 89 43 38          	mov    %rax,0x38(%rbx)
  402813:	66 c7 43 40 72 2e    	movw   $0x2e72,0x40(%rbx)
  402819:	c6 43 42 00          	movb   $0x0,0x42(%rbx)
  40281d:	89 ef                	mov    %ebp,%edi
  40281f:	e8 1c e5 ff ff       	callq  400d40 <close@plt>
  402824:	b8 ff ff ff ff       	mov    $0xffffffff,%eax
  402829:	e9 eb 03 00 00       	jmpq   402c19 <submitr+0x735>
  40282e:	4c 89 64 24 08       	mov    %r12,0x8(%rsp)
  402833:	48 8d 84 24 40 20 00 	lea    0x2040(%rsp),%rax
  40283a:	00 
  40283b:	48 89 04 24          	mov    %rax,(%rsp)
  40283f:	4d 89 f9             	mov    %r15,%r9
  402842:	4d 89 f0             	mov    %r14,%r8
  402845:	b9 c8 36 40 00       	mov    $0x4036c8,%ecx
  40284a:	ba 00 20 00 00       	mov    $0x2000,%edx
  40284f:	be 01 00 00 00       	mov    $0x1,%esi
  402854:	48 8d 7c 24 40       	lea    0x40(%rsp),%rdi
  402859:	b8 00 00 00 00       	mov    $0x0,%eax
  40285e:	e8 3d e6 ff ff       	callq  400ea0 <__sprintf_chk@plt>
  402863:	48 8d 7c 24 40       	lea    0x40(%rsp),%rdi
  402868:	b8 00 00 00 00       	mov    $0x0,%eax
  40286d:	48 c7 c1 ff ff ff ff 	mov    $0xffffffffffffffff,%rcx
  402874:	f2 ae                	repnz scas %es:(%rdi),%al
  402876:	48 f7 d1             	not    %rcx
  402879:	48 8d 51 ff          	lea    -0x1(%rcx),%rdx
  40287d:	48 8d 74 24 40       	lea    0x40(%rsp),%rsi
  402882:	89 ef                	mov    %ebp,%edi
  402884:	e8 e7 f9 ff ff       	callq  402270 <rio_writen>
  402889:	48 85 c0             	test   %rax,%rax
  40288c:	79 6e                	jns    4028fc <submitr+0x418>
  40288e:	48 b8 45 72 72 6f 72 	movabs $0x43203a726f727245,%rax
  402895:	3a 20 43 
  402898:	48 89 03             	mov    %rax,(%rbx)
  40289b:	48 b8 6c 69 65 6e 74 	movabs $0x6e7520746e65696c,%rax
  4028a2:	20 75 6e 
  4028a5:	48 89 43 08          	mov    %rax,0x8(%rbx)
  4028a9:	48 b8 61 62 6c 65 20 	movabs $0x206f7420656c6261,%rax
  4028b0:	74 6f 20 
  4028b3:	48 89 43 10          	mov    %rax,0x10(%rbx)
  4028b7:	48 b8 77 72 69 74 65 	movabs $0x6f74206574697277,%rax
  4028be:	20 74 6f 
  4028c1:	48 89 43 18          	mov    %rax,0x18(%rbx)
  4028c5:	48 b8 20 74 68 65 20 	movabs $0x7365722065687420,%rax
  4028cc:	72 65 73 
  4028cf:	48 89 43 20          	mov    %rax,0x20(%rbx)
  4028d3:	48 b8 75 6c 74 20 73 	movabs $0x7672657320746c75,%rax
  4028da:	65 72 76 
  4028dd:	48 89 43 28          	mov    %rax,0x28(%rbx)
  4028e1:	66 c7 43 30 65 72    	movw   $0x7265,0x30(%rbx)
  4028e7:	c6 43 32 00          	movb   $0x0,0x32(%rbx)
  4028eb:	89 ef                	mov    %ebp,%edi
  4028ed:	e8 4e e4 ff ff       	callq  400d40 <close@plt>
  4028f2:	b8 ff ff ff ff       	mov    $0xffffffff,%eax
  4028f7:	e9 1d 03 00 00       	jmpq   402c19 <submitr+0x735>
  4028fc:	89 ee                	mov    %ebp,%esi
  4028fe:	48 8d bc 24 40 80 00 	lea    0x8040(%rsp),%rdi
  402905:	00 
  402906:	e8 25 f9 ff ff       	callq  402230 <rio_readinitb>
  40290b:	ba 00 20 00 00       	mov    $0x2000,%edx
  402910:	48 8d 74 24 40       	lea    0x40(%rsp),%rsi
  402915:	48 8d bc 24 40 80 00 	lea    0x8040(%rsp),%rdi
  40291c:	00 
  40291d:	e8 31 fa ff ff       	callq  402353 <rio_readlineb>
  402922:	48 85 c0             	test   %rax,%rax
  402925:	7f 7d                	jg     4029a4 <submitr+0x4c0>
  402927:	48 b8 45 72 72 6f 72 	movabs $0x43203a726f727245,%rax
  40292e:	3a 20 43 
  402931:	48 89 03             	mov    %rax,(%rbx)
  402934:	48 b8 6c 69 65 6e 74 	movabs $0x6e7520746e65696c,%rax
  40293b:	20 75 6e 
  40293e:	48 89 43 08          	mov    %rax,0x8(%rbx)
  402942:	48 b8 61 62 6c 65 20 	movabs $0x206f7420656c6261,%rax
  402949:	74 6f 20 
  40294c:	48 89 43 10          	mov    %rax,0x10(%rbx)
  402950:	48 b8 72 65 61 64 20 	movabs $0x7269662064616572,%rax
  402957:	66 69 72 
  40295a:	48 89 43 18          	mov    %rax,0x18(%rbx)
  40295e:	48 b8 73 74 20 68 65 	movabs $0x6564616568207473,%rax
  402965:	61 64 65 
  402968:	48 89 43 20          	mov    %rax,0x20(%rbx)
  40296c:	48 b8 72 20 66 72 6f 	movabs $0x72206d6f72662072,%rax
  402973:	6d 20 72 
  402976:	48 89 43 28          	mov    %rax,0x28(%rbx)
  40297a:	48 b8 65 73 75 6c 74 	movabs $0x657320746c757365,%rax
  402981:	20 73 65 
  402984:	48 89 43 30          	mov    %rax,0x30(%rbx)
  402988:	c7 43 38 72 76 65 72 	movl   $0x72657672,0x38(%rbx)
  40298f:	c6 43 3c 00          	movb   $0x0,0x3c(%rbx)
  402993:	89 ef                	mov    %ebp,%edi
  402995:	e8 a6 e3 ff ff       	callq  400d40 <close@plt>
  40299a:	b8 ff ff ff ff       	mov    $0xffffffff,%eax
  40299f:	e9 75 02 00 00       	jmpq   402c19 <submitr+0x735>
  4029a4:	4c 8d 84 24 40 60 00 	lea    0x6040(%rsp),%r8
  4029ab:	00 
  4029ac:	48 8d 4c 24 2c       	lea    0x2c(%rsp),%rcx
  4029b1:	48 8d 94 24 40 40 00 	lea    0x4040(%rsp),%rdx
  4029b8:	00 
  4029b9:	be 3f 37 40 00       	mov    $0x40373f,%esi
  4029be:	48 8d 7c 24 40       	lea    0x40(%rsp),%rdi
  4029c3:	b8 00 00 00 00       	mov    $0x0,%eax
  4029c8:	e8 33 e4 ff ff       	callq  400e00 <__isoc99_sscanf@plt>
  4029cd:	41 bc 0d 00 00 00    	mov    $0xd,%r12d
  4029d3:	41 bd 0a 00 00 00    	mov    $0xa,%r13d
  4029d9:	e9 95 00 00 00       	jmpq   402a73 <submitr+0x58f>
  4029de:	ba 00 20 00 00       	mov    $0x2000,%edx
  4029e3:	48 8d 74 24 40       	lea    0x40(%rsp),%rsi
  4029e8:	48 8d bc 24 40 80 00 	lea    0x8040(%rsp),%rdi
  4029ef:	00 
  4029f0:	e8 5e f9 ff ff       	callq  402353 <rio_readlineb>
  4029f5:	48 85 c0             	test   %rax,%rax
  4029f8:	7f 79                	jg     402a73 <submitr+0x58f>
  4029fa:	48 b8 45 72 72 6f 72 	movabs $0x43203a726f727245,%rax
  402a01:	3a 20 43 
  402a04:	48 89 03             	mov    %rax,(%rbx)
  402a07:	48 b8 6c 69 65 6e 74 	movabs $0x6e7520746e65696c,%rax
  402a0e:	20 75 6e 
  402a11:	48 89 43 08          	mov    %rax,0x8(%rbx)
  402a15:	48 b8 61 62 6c 65 20 	movabs $0x206f7420656c6261,%rax
  402a1c:	74 6f 20 
  402a1f:	48 89 43 10          	mov    %rax,0x10(%rbx)
  402a23:	48 b8 72 65 61 64 20 	movabs $0x6165682064616572,%rax
  402a2a:	68 65 61 
  402a2d:	48 89 43 18          	mov    %rax,0x18(%rbx)
  402a31:	48 b8 64 65 72 73 20 	movabs $0x6f72662073726564,%rax
  402a38:	66 72 6f 
  402a3b:	48 89 43 20          	mov    %rax,0x20(%rbx)
  402a3f:	48 b8 6d 20 74 68 65 	movabs $0x657220656874206d,%rax
  402a46:	20 72 65 
  402a49:	48 89 43 28          	mov    %rax,0x28(%rbx)
  402a4d:	48 b8 73 75 6c 74 20 	movabs $0x72657320746c7573,%rax
  402a54:	73 65 72 
  402a57:	48 89 43 30          	mov    %rax,0x30(%rbx)
  402a5b:	c7 43 38 76 65 72 00 	movl   $0x726576,0x38(%rbx)
  402a62:	89 ef                	mov    %ebp,%edi
  402a64:	e8 d7 e2 ff ff       	callq  400d40 <close@plt>
  402a69:	b8 ff ff ff ff       	mov    $0xffffffff,%eax
  402a6e:	e9 a6 01 00 00       	jmpq   402c19 <submitr+0x735>
  402a73:	0f b6 44 24 40       	movzbl 0x40(%rsp),%eax
  402a78:	44 89 e6             	mov    %r12d,%esi
  402a7b:	29 c6                	sub    %eax,%esi
  402a7d:	89 f0                	mov    %esi,%eax
  402a7f:	75 15                	jne    402a96 <submitr+0x5b2>
  402a81:	0f b6 44 24 41       	movzbl 0x41(%rsp),%eax
  402a86:	44 89 ea             	mov    %r13d,%edx
  402a89:	29 c2                	sub    %eax,%edx
  402a8b:	89 d0                	mov    %edx,%eax
  402a8d:	75 07                	jne    402a96 <submitr+0x5b2>
  402a8f:	0f b6 44 24 42       	movzbl 0x42(%rsp),%eax
  402a94:	f7 d8                	neg    %eax
  402a96:	85 c0                	test   %eax,%eax
  402a98:	0f 85 40 ff ff ff    	jne    4029de <submitr+0x4fa>
  402a9e:	ba 00 20 00 00       	mov    $0x2000,%edx
  402aa3:	48 8d 74 24 40       	lea    0x40(%rsp),%rsi
  402aa8:	48 8d bc 24 40 80 00 	lea    0x8040(%rsp),%rdi
  402aaf:	00 
  402ab0:	e8 9e f8 ff ff       	callq  402353 <rio_readlineb>
  402ab5:	48 85 c0             	test   %rax,%rax
  402ab8:	0f 8f 83 00 00 00    	jg     402b41 <submitr+0x65d>
  402abe:	48 b8 45 72 72 6f 72 	movabs $0x43203a726f727245,%rax
  402ac5:	3a 20 43 
  402ac8:	48 89 03             	mov    %rax,(%rbx)
  402acb:	48 b8 6c 69 65 6e 74 	movabs $0x6e7520746e65696c,%rax
  402ad2:	20 75 6e 
  402ad5:	48 89 43 08          	mov    %rax,0x8(%rbx)
  402ad9:	48 b8 61 62 6c 65 20 	movabs $0x206f7420656c6261,%rax
  402ae0:	74 6f 20 
  402ae3:	48 89 43 10          	mov    %rax,0x10(%rbx)
  402ae7:	48 b8 72 65 61 64 20 	movabs $0x6174732064616572,%rax
  402aee:	73 74 61 
  402af1:	48 89 43 18          	mov    %rax,0x18(%rbx)
  402af5:	48 b8 74 75 73 20 6d 	movabs $0x7373656d20737574,%rax
  402afc:	65 73 73 
  402aff:	48 89 43 20          	mov    %rax,0x20(%rbx)
  402b03:	48 b8 61 67 65 20 66 	movabs $0x6d6f726620656761,%rax
  402b0a:	72 6f 6d 
  402b0d:	48 89 43 28          	mov    %rax,0x28(%rbx)
  402b11:	48 b8 20 72 65 73 75 	movabs $0x20746c7573657220,%rax
  402b18:	6c 74 20 
  402b1b:	48 89 43 30          	mov    %rax,0x30(%rbx)
  402b1f:	c7 43 38 73 65 72 76 	movl   $0x76726573,0x38(%rbx)
  402b26:	66 c7 43 3c 65 72    	movw   $0x7265,0x3c(%rbx)
  402b2c:	c6 43 3e 00          	movb   $0x0,0x3e(%rbx)
  402b30:	89 ef                	mov    %ebp,%edi
  402b32:	e8 09 e2 ff ff       	callq  400d40 <close@plt>
  402b37:	b8 ff ff ff ff       	mov    $0xffffffff,%eax
  402b3c:	e9 d8 00 00 00       	jmpq   402c19 <submitr+0x735>
  402b41:	44 8b 44 24 2c       	mov    0x2c(%rsp),%r8d
  402b46:	41 81 f8 c8 00 00 00 	cmp    $0xc8,%r8d
  402b4d:	74 37                	je     402b86 <submitr+0x6a2>
  402b4f:	4c 8d 8c 24 40 60 00 	lea    0x6040(%rsp),%r9
  402b56:	00 
  402b57:	b9 08 37 40 00       	mov    $0x403708,%ecx
  402b5c:	48 c7 c2 ff ff ff ff 	mov    $0xffffffffffffffff,%rdx
  402b63:	be 01 00 00 00       	mov    $0x1,%esi
  402b68:	48 89 df             	mov    %rbx,%rdi
  402b6b:	b8 00 00 00 00       	mov    $0x0,%eax
  402b70:	e8 2b e3 ff ff       	callq  400ea0 <__sprintf_chk@plt>
  402b75:	89 ef                	mov    %ebp,%edi
  402b77:	e8 c4 e1 ff ff       	callq  400d40 <close@plt>
  402b7c:	b8 ff ff ff ff       	mov    $0xffffffff,%eax
  402b81:	e9 93 00 00 00       	jmpq   402c19 <submitr+0x735>
  402b86:	48 8d 74 24 40       	lea    0x40(%rsp),%rsi
  402b8b:	48 89 df             	mov    %rbx,%rdi
  402b8e:	e8 3d e1 ff ff       	callq  400cd0 <strcpy@plt>
  402b93:	89 ef                	mov    %ebp,%edi
  402b95:	e8 a6 e1 ff ff       	callq  400d40 <close@plt>
  402b9a:	0f b6 03             	movzbl (%rbx),%eax
  402b9d:	ba 4f 00 00 00       	mov    $0x4f,%edx
  402ba2:	29 c2                	sub    %eax,%edx
  402ba4:	75 22                	jne    402bc8 <submitr+0x6e4>
  402ba6:	0f b6 4b 01          	movzbl 0x1(%rbx),%ecx
  402baa:	b8 4b 00 00 00       	mov    $0x4b,%eax
  402baf:	29 c8                	sub    %ecx,%eax
  402bb1:	75 17                	jne    402bca <submitr+0x6e6>
  402bb3:	0f b6 4b 02          	movzbl 0x2(%rbx),%ecx
  402bb7:	b8 0a 00 00 00       	mov    $0xa,%eax
  402bbc:	29 c8                	sub    %ecx,%eax
  402bbe:	75 0a                	jne    402bca <submitr+0x6e6>
  402bc0:	0f b6 43 03          	movzbl 0x3(%rbx),%eax
  402bc4:	f7 d8                	neg    %eax
  402bc6:	eb 02                	jmp    402bca <submitr+0x6e6>
  402bc8:	89 d0                	mov    %edx,%eax
  402bca:	85 c0                	test   %eax,%eax
  402bcc:	74 38                	je     402c06 <submitr+0x722>
  402bce:	bf 50 37 40 00       	mov    $0x403750,%edi
  402bd3:	b9 05 00 00 00       	mov    $0x5,%ecx
  402bd8:	48 89 de             	mov    %rbx,%rsi
  402bdb:	f3 a6                	repz cmpsb %es:(%rdi),%ds:(%rsi)
  402bdd:	0f 97 c1             	seta   %cl
  402be0:	0f 92 c0             	setb   %al
  402be3:	38 c1                	cmp    %al,%cl
  402be5:	74 26                	je     402c0d <submitr+0x729>
  402be7:	85 d2                	test   %edx,%edx
  402be9:	75 10                	jne    402bfb <submitr+0x717>
  402beb:	0f b6 43 01          	movzbl 0x1(%rbx),%eax
  402bef:	b2 4b                	mov    $0x4b,%dl
  402bf1:	29 c2                	sub    %eax,%edx
  402bf3:	75 06                	jne    402bfb <submitr+0x717>
  402bf5:	0f b6 53 02          	movzbl 0x2(%rbx),%edx
  402bf9:	f7 da                	neg    %edx
  402bfb:	85 d2                	test   %edx,%edx
  402bfd:	75 15                	jne    402c14 <submitr+0x730>
  402bff:	b8 00 00 00 00       	mov    $0x0,%eax
  402c04:	eb 13                	jmp    402c19 <submitr+0x735>
  402c06:	b8 00 00 00 00       	mov    $0x0,%eax
  402c0b:	eb 0c                	jmp    402c19 <submitr+0x735>
  402c0d:	b8 00 00 00 00       	mov    $0x0,%eax
  402c12:	eb 05                	jmp    402c19 <submitr+0x735>
  402c14:	b8 ff ff ff ff       	mov    $0xffffffff,%eax
  402c19:	48 8b 9c 24 58 a0 00 	mov    0xa058(%rsp),%rbx
  402c20:	00 
  402c21:	64 48 33 1c 25 28 00 	xor    %fs:0x28,%rbx
  402c28:	00 00 
  402c2a:	74 05                	je     402c31 <submitr+0x74d>
  402c2c:	e8 cf e0 ff ff       	callq  400d00 <__stack_chk_fail@plt>
  402c31:	48 81 c4 68 a0 00 00 	add    $0xa068,%rsp
  402c38:	5b                   	pop    %rbx
  402c39:	5d                   	pop    %rbp
  402c3a:	41 5c                	pop    %r12
  402c3c:	41 5d                	pop    %r13
  402c3e:	41 5e                	pop    %r14
  402c40:	41 5f                	pop    %r15
  402c42:	c3                   	retq   

0000000000402c43 <init_timeout>:
  402c43:	53                   	push   %rbx
  402c44:	89 fb                	mov    %edi,%ebx
  402c46:	85 ff                	test   %edi,%edi
  402c48:	74 1f                	je     402c69 <init_timeout+0x26>
  402c4a:	85 ff                	test   %edi,%edi
  402c4c:	79 05                	jns    402c53 <init_timeout+0x10>
  402c4e:	bb 00 00 00 00       	mov    $0x0,%ebx
  402c53:	be 42 22 40 00       	mov    $0x402242,%esi
  402c58:	bf 0e 00 00 00       	mov    $0xe,%edi
  402c5d:	e8 0e e1 ff ff       	callq  400d70 <signal@plt>
  402c62:	89 df                	mov    %ebx,%edi
  402c64:	e8 c7 e0 ff ff       	callq  400d30 <alarm@plt>
  402c69:	5b                   	pop    %rbx
  402c6a:	c3                   	retq   

0000000000402c6b <init_driver>:
  402c6b:	55                   	push   %rbp
  402c6c:	53                   	push   %rbx
  402c6d:	48 83 ec 28          	sub    $0x28,%rsp
  402c71:	48 89 fd             	mov    %rdi,%rbp
  402c74:	64 48 8b 04 25 28 00 	mov    %fs:0x28,%rax
  402c7b:	00 00 
  402c7d:	48 89 44 24 18       	mov    %rax,0x18(%rsp)
  402c82:	31 c0                	xor    %eax,%eax
  402c84:	be 01 00 00 00       	mov    $0x1,%esi
  402c89:	bf 0d 00 00 00       	mov    $0xd,%edi
  402c8e:	e8 dd e0 ff ff       	callq  400d70 <signal@plt>
  402c93:	be 01 00 00 00       	mov    $0x1,%esi
  402c98:	bf 1d 00 00 00       	mov    $0x1d,%edi
  402c9d:	e8 ce e0 ff ff       	callq  400d70 <signal@plt>
  402ca2:	be 01 00 00 00       	mov    $0x1,%esi
  402ca7:	bf 1d 00 00 00       	mov    $0x1d,%edi
  402cac:	e8 bf e0 ff ff       	callq  400d70 <signal@plt>
  402cb1:	ba 00 00 00 00       	mov    $0x0,%edx
  402cb6:	be 01 00 00 00       	mov    $0x1,%esi
  402cbb:	bf 02 00 00 00       	mov    $0x2,%edi
  402cc0:	e8 eb e1 ff ff       	callq  400eb0 <socket@plt>
  402cc5:	89 c3                	mov    %eax,%ebx
  402cc7:	85 c0                	test   %eax,%eax
  402cc9:	79 4f                	jns    402d1a <init_driver+0xaf>
  402ccb:	48 b8 45 72 72 6f 72 	movabs $0x43203a726f727245,%rax
  402cd2:	3a 20 43 
  402cd5:	48 89 45 00          	mov    %rax,0x0(%rbp)
  402cd9:	48 b8 6c 69 65 6e 74 	movabs $0x6e7520746e65696c,%rax
  402ce0:	20 75 6e 
  402ce3:	48 89 45 08          	mov    %rax,0x8(%rbp)
  402ce7:	48 b8 61 62 6c 65 20 	movabs $0x206f7420656c6261,%rax
  402cee:	74 6f 20 
  402cf1:	48 89 45 10          	mov    %rax,0x10(%rbp)
  402cf5:	48 b8 63 72 65 61 74 	movabs $0x7320657461657263,%rax
  402cfc:	65 20 73 
  402cff:	48 89 45 18          	mov    %rax,0x18(%rbp)
  402d03:	c7 45 20 6f 63 6b 65 	movl   $0x656b636f,0x20(%rbp)
  402d0a:	66 c7 45 24 74 00    	movw   $0x74,0x24(%rbp)
  402d10:	b8 ff ff ff ff       	mov    $0xffffffff,%eax
  402d15:	e9 28 01 00 00       	jmpq   402e42 <init_driver+0x1d7>
  402d1a:	bf 55 37 40 00       	mov    $0x403755,%edi
  402d1f:	e8 5c e0 ff ff       	callq  400d80 <gethostbyname@plt>
  402d24:	48 85 c0             	test   %rax,%rax
  402d27:	75 68                	jne    402d91 <init_driver+0x126>
  402d29:	48 b8 45 72 72 6f 72 	movabs $0x44203a726f727245,%rax
  402d30:	3a 20 44 
  402d33:	48 89 45 00          	mov    %rax,0x0(%rbp)
  402d37:	48 b8 4e 53 20 69 73 	movabs $0x6e7520736920534e,%rax
  402d3e:	20 75 6e 
  402d41:	48 89 45 08          	mov    %rax,0x8(%rbp)
  402d45:	48 b8 61 62 6c 65 20 	movabs $0x206f7420656c6261,%rax
  402d4c:	74 6f 20 
  402d4f:	48 89 45 10          	mov    %rax,0x10(%rbp)
  402d53:	48 b8 72 65 73 6f 6c 	movabs $0x2065766c6f736572,%rax
  402d5a:	76 65 20 
  402d5d:	48 89 45 18          	mov    %rax,0x18(%rbp)
  402d61:	48 b8 73 65 72 76 65 	movabs $0x6120726576726573,%rax
  402d68:	72 20 61 
  402d6b:	48 89 45 20          	mov    %rax,0x20(%rbp)
  402d6f:	c7 45 28 64 64 72 65 	movl   $0x65726464,0x28(%rbp)
  402d76:	66 c7 45 2c 73 73    	movw   $0x7373,0x2c(%rbp)
  402d7c:	c6 45 2e 00          	movb   $0x0,0x2e(%rbp)
  402d80:	89 df                	mov    %ebx,%edi
  402d82:	e8 b9 df ff ff       	callq  400d40 <close@plt>
  402d87:	b8 ff ff ff ff       	mov    $0xffffffff,%eax
  402d8c:	e9 b1 00 00 00       	jmpq   402e42 <init_driver+0x1d7>
  402d91:	48 c7 04 24 00 00 00 	movq   $0x0,(%rsp)
  402d98:	00 
  402d99:	48 c7 44 24 08 00 00 	movq   $0x0,0x8(%rsp)
  402da0:	00 00 
  402da2:	66 c7 04 24 02 00    	movw   $0x2,(%rsp)
  402da8:	48 63 50 14          	movslq 0x14(%rax),%rdx
  402dac:	48 8b 40 18          	mov    0x18(%rax),%rax
  402db0:	48 8b 30             	mov    (%rax),%rsi
  402db3:	48 8d 7c 24 04       	lea    0x4(%rsp),%rdi
  402db8:	b9 0c 00 00 00       	mov    $0xc,%ecx
  402dbd:	e8 ce df ff ff       	callq  400d90 <__memmove_chk@plt>
  402dc2:	66 c7 44 24 02 3c 9a 	movw   $0x9a3c,0x2(%rsp)
  402dc9:	ba 10 00 00 00       	mov    $0x10,%edx
  402dce:	48 89 e6             	mov    %rsp,%rsi
  402dd1:	89 df                	mov    %ebx,%edi
  402dd3:	e8 a8 e0 ff ff       	callq  400e80 <connect@plt>
  402dd8:	85 c0                	test   %eax,%eax
  402dda:	79 50                	jns    402e2c <init_driver+0x1c1>
  402ddc:	48 b8 45 72 72 6f 72 	movabs $0x55203a726f727245,%rax
  402de3:	3a 20 55 
  402de6:	48 89 45 00          	mov    %rax,0x0(%rbp)
  402dea:	48 b8 6e 61 62 6c 65 	movabs $0x6f7420656c62616e,%rax
  402df1:	20 74 6f 
  402df4:	48 89 45 08          	mov    %rax,0x8(%rbp)
  402df8:	48 b8 20 63 6f 6e 6e 	movabs $0x7463656e6e6f6320,%rax
  402dff:	65 63 74 
  402e02:	48 89 45 10          	mov    %rax,0x10(%rbp)
  402e06:	48 b8 20 74 6f 20 73 	movabs $0x76726573206f7420,%rax
  402e0d:	65 72 76 
  402e10:	48 89 45 18          	mov    %rax,0x18(%rbp)
  402e14:	66 c7 45 20 65 72    	movw   $0x7265,0x20(%rbp)
  402e1a:	c6 45 22 00          	movb   $0x0,0x22(%rbp)
  402e1e:	89 df                	mov    %ebx,%edi
  402e20:	e8 1b df ff ff       	callq  400d40 <close@plt>
  402e25:	b8 ff ff ff ff       	mov    $0xffffffff,%eax
  402e2a:	eb 16                	jmp    402e42 <init_driver+0x1d7>
  402e2c:	89 df                	mov    %ebx,%edi
  402e2e:	e8 0d df ff ff       	callq  400d40 <close@plt>
  402e33:	66 c7 45 00 4f 4b    	movw   $0x4b4f,0x0(%rbp)
  402e39:	c6 45 02 00          	movb   $0x0,0x2(%rbp)
  402e3d:	b8 00 00 00 00       	mov    $0x0,%eax
  402e42:	48 8b 4c 24 18       	mov    0x18(%rsp),%rcx
  402e47:	64 48 33 0c 25 28 00 	xor    %fs:0x28,%rcx
  402e4e:	00 00 
  402e50:	74 05                	je     402e57 <init_driver+0x1ec>
  402e52:	e8 a9 de ff ff       	callq  400d00 <__stack_chk_fail@plt>
  402e57:	48 83 c4 28          	add    $0x28,%rsp
  402e5b:	5b                   	pop    %rbx
  402e5c:	5d                   	pop    %rbp
  402e5d:	c3                   	retq   

0000000000402e5e <driver_post>:
  402e5e:	53                   	push   %rbx
  402e5f:	48 83 ec 10          	sub    $0x10,%rsp
  402e63:	4c 89 cb             	mov    %r9,%rbx
  402e66:	45 85 c0             	test   %r8d,%r8d
  402e69:	74 27                	je     402e92 <driver_post+0x34>
  402e6b:	48 89 ca             	mov    %rcx,%rdx
  402e6e:	be 5a 37 40 00       	mov    $0x40375a,%esi
  402e73:	bf 01 00 00 00       	mov    $0x1,%edi
  402e78:	b8 00 00 00 00       	mov    $0x0,%eax
  402e7d:	e8 9e df ff ff       	callq  400e20 <__printf_chk@plt>
  402e82:	66 c7 03 4f 4b       	movw   $0x4b4f,(%rbx)
  402e87:	c6 43 02 00          	movb   $0x0,0x2(%rbx)
  402e8b:	b8 00 00 00 00       	mov    $0x0,%eax
  402e90:	eb 39                	jmp    402ecb <driver_post+0x6d>
  402e92:	48 85 ff             	test   %rdi,%rdi
  402e95:	74 26                	je     402ebd <driver_post+0x5f>
  402e97:	80 3f 00             	cmpb   $0x0,(%rdi)
  402e9a:	74 21                	je     402ebd <driver_post+0x5f>
  402e9c:	4c 89 0c 24          	mov    %r9,(%rsp)
  402ea0:	49 89 c9             	mov    %rcx,%r9
  402ea3:	49 89 d0             	mov    %rdx,%r8
  402ea6:	48 89 f9             	mov    %rdi,%rcx
  402ea9:	48 89 f2             	mov    %rsi,%rdx
  402eac:	be 9a 3c 00 00       	mov    $0x3c9a,%esi
  402eb1:	bf 55 37 40 00       	mov    $0x403755,%edi
  402eb6:	e8 29 f6 ff ff       	callq  4024e4 <submitr>
  402ebb:	eb 0e                	jmp    402ecb <driver_post+0x6d>
  402ebd:	66 c7 03 4f 4b       	movw   $0x4b4f,(%rbx)
  402ec2:	c6 43 02 00          	movb   $0x0,0x2(%rbx)
  402ec6:	b8 00 00 00 00       	mov    $0x0,%eax
  402ecb:	48 83 c4 10          	add    $0x10,%rsp
  402ecf:	5b                   	pop    %rbx
  402ed0:	c3                   	retq   

0000000000402ed1 <check>:
  402ed1:	89 f8                	mov    %edi,%eax
  402ed3:	c1 e8 1c             	shr    $0x1c,%eax
  402ed6:	85 c0                	test   %eax,%eax
  402ed8:	74 1d                	je     402ef7 <check+0x26>
  402eda:	b9 00 00 00 00       	mov    $0x0,%ecx
  402edf:	eb 0b                	jmp    402eec <check+0x1b>
  402ee1:	89 f8                	mov    %edi,%eax
  402ee3:	d3 e8                	shr    %cl,%eax
  402ee5:	3c 0a                	cmp    $0xa,%al
  402ee7:	74 14                	je     402efd <check+0x2c>
  402ee9:	83 c1 08             	add    $0x8,%ecx
  402eec:	83 f9 1f             	cmp    $0x1f,%ecx
  402eef:	7e f0                	jle    402ee1 <check+0x10>
  402ef1:	b8 01 00 00 00       	mov    $0x1,%eax
  402ef6:	c3                   	retq   
  402ef7:	b8 00 00 00 00       	mov    $0x0,%eax
  402efc:	c3                   	retq   
  402efd:	b8 00 00 00 00       	mov    $0x0,%eax
  402f02:	c3                   	retq   

0000000000402f03 <gencookie>:
  402f03:	53                   	push   %rbx
  402f04:	83 c7 01             	add    $0x1,%edi
  402f07:	e8 a4 dd ff ff       	callq  400cb0 <srandom@plt>
  402f0c:	e8 cf de ff ff       	callq  400de0 <random@plt>
  402f11:	89 c3                	mov    %eax,%ebx
  402f13:	89 c7                	mov    %eax,%edi
  402f15:	e8 b7 ff ff ff       	callq  402ed1 <check>
  402f1a:	85 c0                	test   %eax,%eax
  402f1c:	74 ee                	je     402f0c <gencookie+0x9>
  402f1e:	89 d8                	mov    %ebx,%eax
  402f20:	5b                   	pop    %rbx
  402f21:	c3                   	retq   
  402f22:	66 2e 0f 1f 84 00 00 	nopw   %cs:0x0(%rax,%rax,1)
  402f29:	00 00 00 
  402f2c:	0f 1f 40 00          	nopl   0x0(%rax)

0000000000402f30 <__libc_csu_init>:
  402f30:	41 57                	push   %r15
  402f32:	41 89 ff             	mov    %edi,%r15d
  402f35:	41 56                	push   %r14
  402f37:	49 89 f6             	mov    %rsi,%r14
  402f3a:	41 55                	push   %r13
  402f3c:	49 89 d5             	mov    %rdx,%r13
  402f3f:	41 54                	push   %r12
  402f41:	4c 8d 25 c8 1e 20 00 	lea    0x201ec8(%rip),%r12        # 604e10 <__frame_dummy_init_array_entry>
  402f48:	55                   	push   %rbp
  402f49:	48 8d 2d c8 1e 20 00 	lea    0x201ec8(%rip),%rbp        # 604e18 <__init_array_end>
  402f50:	53                   	push   %rbx
  402f51:	4c 29 e5             	sub    %r12,%rbp
  402f54:	31 db                	xor    %ebx,%ebx
  402f56:	48 c1 fd 03          	sar    $0x3,%rbp
  402f5a:	48 83 ec 08          	sub    $0x8,%rsp
  402f5e:	e8 fd dc ff ff       	callq  400c60 <_init>
  402f63:	48 85 ed             	test   %rbp,%rbp
  402f66:	74 1e                	je     402f86 <__libc_csu_init+0x56>
  402f68:	0f 1f 84 00 00 00 00 	nopl   0x0(%rax,%rax,1)
  402f6f:	00 
  402f70:	4c 89 ea             	mov    %r13,%rdx
  402f73:	4c 89 f6             	mov    %r14,%rsi
  402f76:	44 89 ff             	mov    %r15d,%edi
  402f79:	41 ff 14 dc          	callq  *(%r12,%rbx,8)
  402f7d:	48 83 c3 01          	add    $0x1,%rbx
  402f81:	48 39 eb             	cmp    %rbp,%rbx
  402f84:	75 ea                	jne    402f70 <__libc_csu_init+0x40>
  402f86:	48 83 c4 08          	add    $0x8,%rsp
  402f8a:	5b                   	pop    %rbx
  402f8b:	5d                   	pop    %rbp
  402f8c:	41 5c                	pop    %r12
  402f8e:	41 5d                	pop    %r13
  402f90:	41 5e                	pop    %r14
  402f92:	41 5f                	pop    %r15
  402f94:	c3                   	retq   
  402f95:	66 66 2e 0f 1f 84 00 	data16 nopw %cs:0x0(%rax,%rax,1)
  402f9c:	00 00 00 00 

0000000000402fa0 <__libc_csu_fini>:
  402fa0:	f3 c3                	repz retq 

Disassembly of section .fini:

0000000000402fa4 <_fini>:
  402fa4:	48 83 ec 08          	sub    $0x8,%rsp
  402fa8:	48 83 c4 08          	add    $0x8,%rsp
  402fac:	c3                   	retq   
